ARM GAS  C:\Users\86157\AppData\Local\Temp\cc0uxc89.s 			page 1


   1              		.cpu cortex-m3
   2              		.arch armv7-m
   3              		.fpu softvfp
   4              		.eabi_attribute 20, 1
   5              		.eabi_attribute 21, 1
   6              		.eabi_attribute 23, 3
   7              		.eabi_attribute 24, 1
   8              		.eabi_attribute 25, 1
   9              		.eabi_attribute 26, 1
  10              		.eabi_attribute 30, 1
  11              		.eabi_attribute 34, 1
  12              		.eabi_attribute 18, 4
  13              		.file	"diskio.c"
  14              		.text
  15              	.Ltext0:
  16              		.cfi_sections	.debug_frame
  17              		.file 1 "DRIVER/FatFs/source/diskio.c"
  18              		.section	.text.disk_status,"ax",%progbits
  19              		.align	1
  20              		.global	disk_status
  21              		.syntax unified
  22              		.thumb
  23              		.thumb_func
  25              	disk_status:
  26              	.LVL0:
  27              	.LFB29:
   1:DRIVER/FatFs/source/diskio.c **** /*-----------------------------------------------------------------------*/
   2:DRIVER/FatFs/source/diskio.c **** /* Low level disk I/O module SKELETON for FatFs     (C)ChaN, 2019        */
   3:DRIVER/FatFs/source/diskio.c **** /*-----------------------------------------------------------------------*/
   4:DRIVER/FatFs/source/diskio.c **** /* If a working storage control module is available, it should be        */
   5:DRIVER/FatFs/source/diskio.c **** /* attached to the FatFs via a glue function rather than modifying it.   */
   6:DRIVER/FatFs/source/diskio.c **** /* This is an example of glue functions to attach various exsisting      */
   7:DRIVER/FatFs/source/diskio.c **** /* storage control modules to the FatFs module with a defined API.       */
   8:DRIVER/FatFs/source/diskio.c **** /*-----------------------------------------------------------------------*/
   9:DRIVER/FatFs/source/diskio.c **** 
  10:DRIVER/FatFs/source/diskio.c **** #include "ff.h"					/* Obtains integer types */
  11:DRIVER/FatFs/source/diskio.c **** #include "diskio.h"				/* Declarations of disk functions */
  12:DRIVER/FatFs/source/diskio.c **** #include "exFlash.h"			/* Â§ñÈÉ®FlashÂ∫ïÂ±ÇÂáΩÊï∞ */
  13:DRIVER/FatFs/source/diskio.c **** #include "stm32_eval_sdio_sd.h"	/* SDÂç°Â∫ïÂ±ÇÂáΩÊï∞ */
  14:DRIVER/FatFs/source/diskio.c **** 
  15:DRIVER/FatFs/source/diskio.c **** /* Definitions of physical drive number for each drive */
  16:DRIVER/FatFs/source/diskio.c **** #define DEV_SDCARD		0	/* SDÂç° */
  17:DRIVER/FatFs/source/diskio.c **** #define DEV_FLASH_EX	1	/* Â§ñÈÉ®flash */
  18:DRIVER/FatFs/source/diskio.c **** 
  19:DRIVER/FatFs/source/diskio.c **** /* ËäØÁâá‰ø°ÊÅØ */
  20:DRIVER/FatFs/source/diskio.c **** extern SD_CardInfo SDCardInfo;
  21:DRIVER/FatFs/source/diskio.c **** #define SECTOR_SIZE_SDCARD 		512
  22:DRIVER/FatFs/source/diskio.c **** #define SECTOR_SIZE_FLASH_EX 	4096
  23:DRIVER/FatFs/source/diskio.c **** 
  24:DRIVER/FatFs/source/diskio.c **** /*-----------------------------------------------------------------------*/
  25:DRIVER/FatFs/source/diskio.c **** /* Get Drive Status                                                      */
  26:DRIVER/FatFs/source/diskio.c **** /*-----------------------------------------------------------------------*/
  27:DRIVER/FatFs/source/diskio.c **** 
  28:DRIVER/FatFs/source/diskio.c **** DSTATUS disk_status (
  29:DRIVER/FatFs/source/diskio.c **** 	BYTE pdrv		/* Physical drive nmuber to identify the drive */
  30:DRIVER/FatFs/source/diskio.c **** )
  31:DRIVER/FatFs/source/diskio.c **** {
ARM GAS  C:\Users\86157\AppData\Local\Temp\cc0uxc89.s 			page 2


  28              		.loc 1 31 1 view -0
  29              		.cfi_startproc
  30              		@ args = 0, pretend = 0, frame = 8
  31              		@ frame_needed = 0, uses_anonymous_args = 0
  32              		.loc 1 31 1 is_stmt 0 view .LVU1
  33 0000 10B5     		push	{r4, lr}
  34              	.LCFI0:
  35              		.cfi_def_cfa_offset 8
  36              		.cfi_offset 4, -8
  37              		.cfi_offset 14, -4
  38 0002 82B0     		sub	sp, sp, #8
  39              	.LCFI1:
  40              		.cfi_def_cfa_offset 16
  32:DRIVER/FatFs/source/diskio.c **** 	DSTATUS stat;
  41              		.loc 1 32 2 is_stmt 1 view .LVU2
  33:DRIVER/FatFs/source/diskio.c **** 
  34:DRIVER/FatFs/source/diskio.c **** 	switch (pdrv) {
  42              		.loc 1 34 2 view .LVU3
  43 0004 0446     		mov	r4, r0
  44 0006 50B1     		cbz	r0, .L2
  45 0008 0128     		cmp	r0, #1
  46 000a 0BD1     		bne	.L4
  47              	.LBB2:
  35:DRIVER/FatFs/source/diskio.c **** 	case DEV_SDCARD :
  36:DRIVER/FatFs/source/diskio.c **** 		return RES_OK;
  37:DRIVER/FatFs/source/diskio.c **** 
  38:DRIVER/FatFs/source/diskio.c **** 	case DEV_FLASH_EX :
  39:DRIVER/FatFs/source/diskio.c **** 		stat = 0;
  48              		.loc 1 39 3 view .LVU4
  49              	.LVL1:
  40:DRIVER/FatFs/source/diskio.c **** 		bool flag_Flash;
  50              		.loc 1 40 3 view .LVU5
  41:DRIVER/FatFs/source/diskio.c **** 		Flash_EX_Errors_t err = Flash_EX_Check_JEDEC_ID(&flag_Flash);
  51              		.loc 1 41 3 view .LVU6
  52              		.loc 1 41 27 is_stmt 0 view .LVU7
  53 000c 0DF10700 		add	r0, sp, #7
  54              	.LVL2:
  55              		.loc 1 41 27 view .LVU8
  56 0010 FFF7FEFF 		bl	Flash_EX_Check_JEDEC_ID
  57              	.LVL3:
  42:DRIVER/FatFs/source/diskio.c **** 		if((!flag_Flash) || (err != FLASH_EX_ERR_SUCCESS)){	// IDÈîôËØØÊàñËÄÖÂáΩÊï∞Êä•Èîô
  58              		.loc 1 42 3 is_stmt 1 view .LVU9
  59              		.loc 1 42 7 is_stmt 0 view .LVU10
  60 0014 9DF80730 		ldrb	r3, [sp, #7]	@ zero_extendqisi2
  61              		.loc 1 42 5 view .LVU11
  62 0018 0BB1     		cbz	r3, .L2
  63              		.loc 1 42 20 discriminator 1 view .LVU12
  64 001a 00B9     		cbnz	r0, .L2
  39:DRIVER/FatFs/source/diskio.c **** 		bool flag_Flash;
  65              		.loc 1 39 8 view .LVU13
  66 001c 0446     		mov	r4, r0
  67              	.LVL4:
  68              	.L2:
  39:DRIVER/FatFs/source/diskio.c **** 		bool flag_Flash;
  69              		.loc 1 39 8 view .LVU14
  70 001e 2046     		mov	r0, r4
  71              	.L3:
ARM GAS  C:\Users\86157\AppData\Local\Temp\cc0uxc89.s 			page 3


  72              	.LBE2:
  43:DRIVER/FatFs/source/diskio.c **** 			stat |= STA_NOINIT;
  44:DRIVER/FatFs/source/diskio.c **** 		}
  45:DRIVER/FatFs/source/diskio.c **** 		return stat;
  46:DRIVER/FatFs/source/diskio.c **** 	}
  47:DRIVER/FatFs/source/diskio.c **** 	return STA_NOINIT;
  48:DRIVER/FatFs/source/diskio.c **** }
  73              		.loc 1 48 1 discriminator 1 view .LVU15
  74 0020 02B0     		add	sp, sp, #8
  75              	.LCFI2:
  76              		.cfi_remember_state
  77              		.cfi_def_cfa_offset 8
  78              		@ sp needed
  79 0022 10BD     		pop	{r4, pc}
  80              	.LVL5:
  81              	.L4:
  82              	.LCFI3:
  83              		.cfi_restore_state
  34:DRIVER/FatFs/source/diskio.c **** 	case DEV_SDCARD :
  84              		.loc 1 34 2 view .LVU16
  85 0024 0120     		movs	r0, #1
  86              	.LVL6:
  34:DRIVER/FatFs/source/diskio.c **** 	case DEV_SDCARD :
  87              		.loc 1 34 2 view .LVU17
  88 0026 FBE7     		b	.L3
  89              		.cfi_endproc
  90              	.LFE29:
  92              		.section	.text.disk_initialize,"ax",%progbits
  93              		.align	1
  94              		.global	disk_initialize
  95              		.syntax unified
  96              		.thumb
  97              		.thumb_func
  99              	disk_initialize:
 100              	.LVL7:
 101              	.LFB30:
  49:DRIVER/FatFs/source/diskio.c **** 
  50:DRIVER/FatFs/source/diskio.c **** 
  51:DRIVER/FatFs/source/diskio.c **** 
  52:DRIVER/FatFs/source/diskio.c **** /*-----------------------------------------------------------------------*/
  53:DRIVER/FatFs/source/diskio.c **** /* Inidialize a Drive                                                    */
  54:DRIVER/FatFs/source/diskio.c **** /*-----------------------------------------------------------------------*/
  55:DRIVER/FatFs/source/diskio.c **** 
  56:DRIVER/FatFs/source/diskio.c **** DSTATUS disk_initialize (
  57:DRIVER/FatFs/source/diskio.c **** 	BYTE pdrv				/* Physical drive nmuber to identify the drive */
  58:DRIVER/FatFs/source/diskio.c **** )
  59:DRIVER/FatFs/source/diskio.c **** {
 102              		.loc 1 59 1 is_stmt 1 view -0
 103              		.cfi_startproc
 104              		@ args = 0, pretend = 0, frame = 0
 105              		@ frame_needed = 0, uses_anonymous_args = 0
 106              		.loc 1 59 1 is_stmt 0 view .LVU19
 107 0000 10B5     		push	{r4, lr}
 108              	.LCFI4:
 109              		.cfi_def_cfa_offset 8
 110              		.cfi_offset 4, -8
 111              		.cfi_offset 14, -4
ARM GAS  C:\Users\86157\AppData\Local\Temp\cc0uxc89.s 			page 4


  60:DRIVER/FatFs/source/diskio.c **** 	DSTATUS stat;
 112              		.loc 1 60 2 is_stmt 1 view .LVU20
  61:DRIVER/FatFs/source/diskio.c **** 
  62:DRIVER/FatFs/source/diskio.c **** 	switch (pdrv) {
 113              		.loc 1 62 2 view .LVU21
 114 0002 20B1     		cbz	r0, .L7
 115 0004 0446     		mov	r4, r0
 116 0006 0128     		cmp	r0, #1
 117 0008 0BD0     		beq	.L8
 118 000a 0120     		movs	r0, #1
 119              	.LVL8:
 120              	.L9:
  63:DRIVER/FatFs/source/diskio.c **** 	case DEV_SDCARD :
  64:DRIVER/FatFs/source/diskio.c **** 		stat = 0;
  65:DRIVER/FatFs/source/diskio.c **** 		/* ÈÖçÁΩÆ‰∏≠Êñ≠‰ºòÂÖàÁ∫ßÁªÑ */
  66:DRIVER/FatFs/source/diskio.c ****     	NVIC_PriorityGroupConfig(NVIC_PriorityGroup_2);
  67:DRIVER/FatFs/source/diskio.c **** 		/* ÂàùÂßãÂåñSDÂç° */
  68:DRIVER/FatFs/source/diskio.c **** 		SD_Error errorstatus = SD_Init();
  69:DRIVER/FatFs/source/diskio.c **** 		if(errorstatus != SD_OK) 
  70:DRIVER/FatFs/source/diskio.c **** 			stat |= STA_NOINIT;
  71:DRIVER/FatFs/source/diskio.c **** 		return stat;
  72:DRIVER/FatFs/source/diskio.c **** 
  73:DRIVER/FatFs/source/diskio.c **** 	case DEV_FLASH_EX :
  74:DRIVER/FatFs/source/diskio.c **** 		stat = 0;
  75:DRIVER/FatFs/source/diskio.c **** 		delay_init();						// Âª∂Ëøü
  76:DRIVER/FatFs/source/diskio.c **** 		USART1_Init();  					// ‰∏≤Âè£
  77:DRIVER/FatFs/source/diskio.c **** 		Flash_EX_Init();					// flashÂàùÂßãÂåñ
  78:DRIVER/FatFs/source/diskio.c **** 		Flash_EX_Errors_t err = Flash_EX_Wake_Up();	// Ê∂àËÄóÊéâÁ¨¨‰∏Ä‰∏™ÂºÇÂ∏∏command
  79:DRIVER/FatFs/source/diskio.c **** 		if(err != FLASH_EX_ERR_SUCCESS){
  80:DRIVER/FatFs/source/diskio.c **** 			stat |= STA_NOINIT;
  81:DRIVER/FatFs/source/diskio.c **** 		}
  82:DRIVER/FatFs/source/diskio.c **** 		stat |= disk_status(DEV_FLASH_EX);	// Ê£ÄÊü•ËÆæÂ§á
  83:DRIVER/FatFs/source/diskio.c **** 		return stat;
  84:DRIVER/FatFs/source/diskio.c **** 	}
  85:DRIVER/FatFs/source/diskio.c **** 	return STA_NOINIT;
  86:DRIVER/FatFs/source/diskio.c **** }
 121              		.loc 1 86 1 is_stmt 0 view .LVU22
 122 000c 10BD     		pop	{r4, pc}
 123              	.LVL9:
 124              	.L7:
 125              	.LBB3:
  64:DRIVER/FatFs/source/diskio.c **** 		/* ÈÖçÁΩÆ‰∏≠Êñ≠‰ºòÂÖàÁ∫ßÁªÑ */
 126              		.loc 1 64 3 is_stmt 1 view .LVU23
  66:DRIVER/FatFs/source/diskio.c **** 		/* ÂàùÂßãÂåñSDÂç° */
 127              		.loc 1 66 6 view .LVU24
 128 000e 4FF4A060 		mov	r0, #1280
 129              	.LVL10:
  66:DRIVER/FatFs/source/diskio.c **** 		/* ÂàùÂßãÂåñSDÂç° */
 130              		.loc 1 66 6 is_stmt 0 view .LVU25
 131 0012 FFF7FEFF 		bl	NVIC_PriorityGroupConfig
 132              	.LVL11:
  68:DRIVER/FatFs/source/diskio.c **** 		if(errorstatus != SD_OK) 
 133              		.loc 1 68 3 is_stmt 1 view .LVU26
  68:DRIVER/FatFs/source/diskio.c **** 		if(errorstatus != SD_OK) 
 134              		.loc 1 68 26 is_stmt 0 view .LVU27
 135 0016 FFF7FEFF 		bl	SD_Init
 136              	.LVL12:
ARM GAS  C:\Users\86157\AppData\Local\Temp\cc0uxc89.s 			page 5


  69:DRIVER/FatFs/source/diskio.c **** 			stat |= STA_NOINIT;
 137              		.loc 1 69 3 is_stmt 1 view .LVU28
  69:DRIVER/FatFs/source/diskio.c **** 			stat |= STA_NOINIT;
 138              		.loc 1 69 5 is_stmt 0 view .LVU29
 139 001a 0028     		cmp	r0, #0
 140 001c F6D0     		beq	.L9
  70:DRIVER/FatFs/source/diskio.c **** 		return stat;
 141              		.loc 1 70 9 view .LVU30
 142 001e 0120     		movs	r0, #1
 143              	.LVL13:
  70:DRIVER/FatFs/source/diskio.c **** 		return stat;
 144              		.loc 1 70 9 view .LVU31
 145 0020 F4E7     		b	.L9
 146              	.LVL14:
 147              	.L8:
  74:DRIVER/FatFs/source/diskio.c **** 		delay_init();						// Âª∂Ëøü
 148              		.loc 1 74 3 is_stmt 1 view .LVU32
  75:DRIVER/FatFs/source/diskio.c **** 		USART1_Init();  					// ‰∏≤Âè£
 149              		.loc 1 75 3 view .LVU33
 150 0022 FFF7FEFF 		bl	delay_init
 151              	.LVL15:
  76:DRIVER/FatFs/source/diskio.c **** 		Flash_EX_Init();					// flashÂàùÂßãÂåñ
 152              		.loc 1 76 3 view .LVU34
 153 0026 FFF7FEFF 		bl	USART1_Init
 154              	.LVL16:
  77:DRIVER/FatFs/source/diskio.c **** 		Flash_EX_Errors_t err = Flash_EX_Wake_Up();	// Ê∂àËÄóÊéâÁ¨¨‰∏Ä‰∏™ÂºÇÂ∏∏command
 155              		.loc 1 77 3 view .LVU35
 156 002a FFF7FEFF 		bl	Flash_EX_Init
 157              	.LVL17:
  78:DRIVER/FatFs/source/diskio.c **** 		if(err != FLASH_EX_ERR_SUCCESS){
 158              		.loc 1 78 3 view .LVU36
  78:DRIVER/FatFs/source/diskio.c **** 		if(err != FLASH_EX_ERR_SUCCESS){
 159              		.loc 1 78 27 is_stmt 0 view .LVU37
 160 002e FFF7FEFF 		bl	Flash_EX_Wake_Up
 161              	.LVL18:
  79:DRIVER/FatFs/source/diskio.c **** 			stat |= STA_NOINIT;
 162              		.loc 1 79 3 is_stmt 1 view .LVU38
  79:DRIVER/FatFs/source/diskio.c **** 			stat |= STA_NOINIT;
 163              		.loc 1 79 5 is_stmt 0 view .LVU39
 164 0032 00B9     		cbnz	r0, .L10
  74:DRIVER/FatFs/source/diskio.c **** 		delay_init();						// Âª∂Ëøü
 165              		.loc 1 74 8 view .LVU40
 166 0034 0446     		mov	r4, r0
 167              	.L10:
 168              	.LVL19:
  82:DRIVER/FatFs/source/diskio.c **** 		return stat;
 169              		.loc 1 82 3 is_stmt 1 view .LVU41
  82:DRIVER/FatFs/source/diskio.c **** 		return stat;
 170              		.loc 1 82 11 is_stmt 0 view .LVU42
 171 0036 0120     		movs	r0, #1
 172              	.LVL20:
  82:DRIVER/FatFs/source/diskio.c **** 		return stat;
 173              		.loc 1 82 11 view .LVU43
 174 0038 FFF7FEFF 		bl	disk_status
 175              	.LVL21:
  82:DRIVER/FatFs/source/diskio.c **** 		return stat;
 176              		.loc 1 82 8 view .LVU44
ARM GAS  C:\Users\86157\AppData\Local\Temp\cc0uxc89.s 			page 6


 177 003c 2043     		orrs	r0, r0, r4
 178 003e C0B2     		uxtb	r0, r0
 179              	.LVL22:
  83:DRIVER/FatFs/source/diskio.c **** 	}
 180              		.loc 1 83 3 is_stmt 1 view .LVU45
  83:DRIVER/FatFs/source/diskio.c **** 	}
 181              		.loc 1 83 10 is_stmt 0 view .LVU46
 182 0040 E4E7     		b	.L9
 183              	.LBE3:
 184              		.cfi_endproc
 185              	.LFE30:
 187              		.section	.text.disk_read,"ax",%progbits
 188              		.align	1
 189              		.global	disk_read
 190              		.syntax unified
 191              		.thumb
 192              		.thumb_func
 194              	disk_read:
 195              	.LVL23:
 196              	.LFB31:
  87:DRIVER/FatFs/source/diskio.c **** 
  88:DRIVER/FatFs/source/diskio.c **** 
  89:DRIVER/FatFs/source/diskio.c **** 
  90:DRIVER/FatFs/source/diskio.c **** /*-----------------------------------------------------------------------*/
  91:DRIVER/FatFs/source/diskio.c **** /* Read Sector(s)                                                        */
  92:DRIVER/FatFs/source/diskio.c **** /*-----------------------------------------------------------------------*/
  93:DRIVER/FatFs/source/diskio.c **** 
  94:DRIVER/FatFs/source/diskio.c **** DRESULT disk_read (
  95:DRIVER/FatFs/source/diskio.c **** 	BYTE pdrv,		/* Physical drive nmuber to identify the drive */
  96:DRIVER/FatFs/source/diskio.c **** 	BYTE *buff,		/* Data buffer to store read data */
  97:DRIVER/FatFs/source/diskio.c **** 	LBA_t sector,	/* Start sector in LBA */
  98:DRIVER/FatFs/source/diskio.c **** 	UINT count		/* Number of sectors to read */
  99:DRIVER/FatFs/source/diskio.c **** )
 100:DRIVER/FatFs/source/diskio.c **** {
 197              		.loc 1 100 1 is_stmt 1 view -0
 198              		.cfi_startproc
 199              		@ args = 0, pretend = 0, frame = 0
 200              		@ frame_needed = 0, uses_anonymous_args = 0
 201              		.loc 1 100 1 is_stmt 0 view .LVU48
 202 0000 10B5     		push	{r4, lr}
 203              	.LCFI5:
 204              		.cfi_def_cfa_offset 8
 205              		.cfi_offset 4, -8
 206              		.cfi_offset 14, -4
 207 0002 8C46     		mov	ip, r1
 208 0004 1146     		mov	r1, r2
 209              	.LVL24:
 101:DRIVER/FatFs/source/diskio.c **** 	switch (pdrv) {
 210              		.loc 1 101 2 is_stmt 1 view .LVU49
 211 0006 20B1     		cbz	r0, .L14
 212 0008 0446     		mov	r4, r0
 213 000a 0128     		cmp	r0, #1
 214 000c 1DD0     		beq	.L15
 215 000e 0420     		movs	r0, #4
 216              	.LVL25:
 217              	.L16:
 102:DRIVER/FatFs/source/diskio.c **** 	case DEV_SDCARD :
ARM GAS  C:\Users\86157\AppData\Local\Temp\cc0uxc89.s 			page 7


 103:DRIVER/FatFs/source/diskio.c **** 		SD_Error err_SDCard;
 104:DRIVER/FatFs/source/diskio.c **** 		if(count == 1){
 105:DRIVER/FatFs/source/diskio.c **** 	    	err_SDCard = SD_ReadBlock((uint8_t*)buff, sector * SDCardInfo.CardBlockSize, SDCardInfo.CardB
 106:DRIVER/FatFs/source/diskio.c **** 		}else{
 107:DRIVER/FatFs/source/diskio.c **** 			err_SDCard = SD_ReadMultiBlocks((uint8_t*)buff, sector * SECTOR_SIZE_SDCARD, SECTOR_SIZE_SDCARD,
 108:DRIVER/FatFs/source/diskio.c **** 		}
 109:DRIVER/FatFs/source/diskio.c **** 		if(err_SDCard != SD_OK){ return RES_ERROR; }
 110:DRIVER/FatFs/source/diskio.c **** 		/* Check if the Transfer is finished */
 111:DRIVER/FatFs/source/diskio.c **** 		err_SDCard = SD_WaitReadOperation();
 112:DRIVER/FatFs/source/diskio.c **** 		if(err_SDCard != SD_OK){ return RES_ERROR; }
 113:DRIVER/FatFs/source/diskio.c **** 		while(SD_GetStatus() != SD_TRANSFER_OK);
 114:DRIVER/FatFs/source/diskio.c **** 		return RES_OK;
 115:DRIVER/FatFs/source/diskio.c **** 
 116:DRIVER/FatFs/source/diskio.c **** 	case DEV_FLASH_EX :
 117:DRIVER/FatFs/source/diskio.c **** 		Flash_EX_Errors_t err = Flash_EX_Read((uint8_t*)buff, sector * SECTOR_SIZE_FLASH_EX, count * SECT
 118:DRIVER/FatFs/source/diskio.c **** 		switch (err){
 119:DRIVER/FatFs/source/diskio.c **** 		case FLASH_EX_ERR_SUCCESS:
 120:DRIVER/FatFs/source/diskio.c **** 			return RES_OK;		// ÊàêÂäüËØªÂèñ
 121:DRIVER/FatFs/source/diskio.c **** 			break;
 122:DRIVER/FatFs/source/diskio.c **** 		case FLASH_EX_ERR_TIMEOUT:
 123:DRIVER/FatFs/source/diskio.c **** 			return RES_NOTRDY;	// ËøêË°åË∂ÖÊó∂
 124:DRIVER/FatFs/source/diskio.c **** 			break;
 125:DRIVER/FatFs/source/diskio.c **** 		case FLASH_EX_OVERFLOWED:
 126:DRIVER/FatFs/source/diskio.c **** 			return RES_ERROR;	// Âú∞ÂùÄÊ∫¢Âá∫
 127:DRIVER/FatFs/source/diskio.c **** 			break;
 128:DRIVER/FatFs/source/diskio.c **** 		default:
 129:DRIVER/FatFs/source/diskio.c **** 			return RES_PARERR;	// Not allowed
 130:DRIVER/FatFs/source/diskio.c **** 		}
 131:DRIVER/FatFs/source/diskio.c **** 	}
 132:DRIVER/FatFs/source/diskio.c **** 
 133:DRIVER/FatFs/source/diskio.c **** 	return RES_PARERR;
 134:DRIVER/FatFs/source/diskio.c **** }
 218              		.loc 1 134 1 is_stmt 0 view .LVU50
 219 0010 10BD     		pop	{r4, pc}
 220              	.LVL26:
 221              	.L14:
 222              	.LBB4:
 103:DRIVER/FatFs/source/diskio.c **** 		if(count == 1){
 223              		.loc 1 103 3 is_stmt 1 view .LVU51
 104:DRIVER/FatFs/source/diskio.c **** 	    	err_SDCard = SD_ReadBlock((uint8_t*)buff, sector * SDCardInfo.CardBlockSize, SDCardInfo.CardB
 224              		.loc 1 104 3 view .LVU52
 104:DRIVER/FatFs/source/diskio.c **** 	    	err_SDCard = SD_ReadBlock((uint8_t*)buff, sector * SDCardInfo.CardBlockSize, SDCardInfo.CardB
 225              		.loc 1 104 5 is_stmt 0 view .LVU53
 226 0012 012B     		cmp	r3, #1
 227 0014 08D0     		beq	.L26
 107:DRIVER/FatFs/source/diskio.c **** 		}
 228              		.loc 1 107 4 is_stmt 1 view .LVU54
 107:DRIVER/FatFs/source/diskio.c **** 		}
 229              		.loc 1 107 17 is_stmt 0 view .LVU55
 230 0016 4FF40072 		mov	r2, #512
 231 001a 4902     		lsls	r1, r1, #9
 232              	.LVL27:
 107:DRIVER/FatFs/source/diskio.c **** 		}
 233              		.loc 1 107 17 view .LVU56
 234 001c 6046     		mov	r0, ip
 235              	.LVL28:
 107:DRIVER/FatFs/source/diskio.c **** 		}
ARM GAS  C:\Users\86157\AppData\Local\Temp\cc0uxc89.s 			page 8


 236              		.loc 1 107 17 view .LVU57
 237 001e FFF7FEFF 		bl	SD_ReadMultiBlocks
 238              	.LVL29:
 239              	.L18:
 109:DRIVER/FatFs/source/diskio.c **** 		/* Check if the Transfer is finished */
 240              		.loc 1 109 3 is_stmt 1 view .LVU58
 109:DRIVER/FatFs/source/diskio.c **** 		/* Check if the Transfer is finished */
 241              		.loc 1 109 5 is_stmt 0 view .LVU59
 242 0022 50B1     		cbz	r0, .L27
 109:DRIVER/FatFs/source/diskio.c **** 		/* Check if the Transfer is finished */
 243              		.loc 1 109 35 view .LVU60
 244 0024 0120     		movs	r0, #1
 245              	.LVL30:
 109:DRIVER/FatFs/source/diskio.c **** 		/* Check if the Transfer is finished */
 246              		.loc 1 109 35 view .LVU61
 247 0026 F3E7     		b	.L16
 248              	.LVL31:
 249              	.L26:
 105:DRIVER/FatFs/source/diskio.c **** 		}else{
 250              		.loc 1 105 7 is_stmt 1 view .LVU62
 105:DRIVER/FatFs/source/diskio.c **** 		}else{
 251              		.loc 1 105 68 is_stmt 0 view .LVU63
 252 0028 114B     		ldr	r3, .L28
 253              	.LVL32:
 105:DRIVER/FatFs/source/diskio.c **** 		}else{
 254              		.loc 1 105 68 view .LVU64
 255 002a 1B6D     		ldr	r3, [r3, #80]
 105:DRIVER/FatFs/source/diskio.c **** 		}else{
 256              		.loc 1 105 20 view .LVU65
 257 002c 9AB2     		uxth	r2, r3
 258 002e 03FB01F1 		mul	r1, r3, r1
 259              	.LVL33:
 105:DRIVER/FatFs/source/diskio.c **** 		}else{
 260              		.loc 1 105 20 view .LVU66
 261 0032 6046     		mov	r0, ip
 262              	.LVL34:
 105:DRIVER/FatFs/source/diskio.c **** 		}else{
 263              		.loc 1 105 20 view .LVU67
 264 0034 FFF7FEFF 		bl	SD_ReadBlock
 265              	.LVL35:
 105:DRIVER/FatFs/source/diskio.c **** 		}else{
 266              		.loc 1 105 20 view .LVU68
 267 0038 F3E7     		b	.L18
 268              	.L27:
 111:DRIVER/FatFs/source/diskio.c **** 		if(err_SDCard != SD_OK){ return RES_ERROR; }
 269              		.loc 1 111 3 is_stmt 1 view .LVU69
 111:DRIVER/FatFs/source/diskio.c **** 		if(err_SDCard != SD_OK){ return RES_ERROR; }
 270              		.loc 1 111 16 is_stmt 0 view .LVU70
 271 003a FFF7FEFF 		bl	SD_WaitReadOperation
 272              	.LVL36:
 112:DRIVER/FatFs/source/diskio.c **** 		while(SD_GetStatus() != SD_TRANSFER_OK);
 273              		.loc 1 112 3 is_stmt 1 view .LVU71
 112:DRIVER/FatFs/source/diskio.c **** 		while(SD_GetStatus() != SD_TRANSFER_OK);
 274              		.loc 1 112 5 is_stmt 0 view .LVU72
 275 003e 88B9     		cbnz	r0, .L21
 276              	.LVL37:
 277              	.L19:
ARM GAS  C:\Users\86157\AppData\Local\Temp\cc0uxc89.s 			page 9


 113:DRIVER/FatFs/source/diskio.c **** 		return RES_OK;
 278              		.loc 1 113 24 is_stmt 1 discriminator 1 view .LVU73
 113:DRIVER/FatFs/source/diskio.c **** 		return RES_OK;
 279              		.loc 1 113 9 is_stmt 0 discriminator 1 view .LVU74
 280 0040 FFF7FEFF 		bl	SD_GetStatus
 281              	.LVL38:
 113:DRIVER/FatFs/source/diskio.c **** 		return RES_OK;
 282              		.loc 1 113 24 discriminator 1 view .LVU75
 283 0044 0028     		cmp	r0, #0
 284 0046 FBD1     		bne	.L19
 285 0048 E2E7     		b	.L16
 286              	.LVL39:
 287              	.L15:
 117:DRIVER/FatFs/source/diskio.c **** 		switch (err){
 288              		.loc 1 117 3 is_stmt 1 view .LVU76
 117:DRIVER/FatFs/source/diskio.c **** 		switch (err){
 289              		.loc 1 117 27 is_stmt 0 view .LVU77
 290 004a 1A03     		lsls	r2, r3, #12
 291 004c 0903     		lsls	r1, r1, #12
 292              	.LVL40:
 117:DRIVER/FatFs/source/diskio.c **** 		switch (err){
 293              		.loc 1 117 27 view .LVU78
 294 004e 6046     		mov	r0, ip
 295              	.LVL41:
 117:DRIVER/FatFs/source/diskio.c **** 		switch (err){
 296              		.loc 1 117 27 view .LVU79
 297 0050 FFF7FEFF 		bl	Flash_EX_Read
 298              	.LVL42:
 118:DRIVER/FatFs/source/diskio.c **** 		case FLASH_EX_ERR_SUCCESS:
 299              		.loc 1 118 3 is_stmt 1 view .LVU80
 300 0054 0128     		cmp	r0, #1
 301 0056 07D0     		beq	.L22
 302 0058 0228     		cmp	r0, #2
 303 005a 07D0     		beq	.L23
 304 005c 0028     		cmp	r0, #0
 305 005e D7D0     		beq	.L16
 129:DRIVER/FatFs/source/diskio.c **** 		}
 306              		.loc 1 129 11 is_stmt 0 view .LVU81
 307 0060 0420     		movs	r0, #4
 308              	.LVL43:
 129:DRIVER/FatFs/source/diskio.c **** 		}
 309              		.loc 1 129 11 view .LVU82
 310 0062 D5E7     		b	.L16
 311              	.LVL44:
 312              	.L21:
 112:DRIVER/FatFs/source/diskio.c **** 		while(SD_GetStatus() != SD_TRANSFER_OK);
 313              		.loc 1 112 35 view .LVU83
 314 0064 0120     		movs	r0, #1
 315              	.LVL45:
 112:DRIVER/FatFs/source/diskio.c **** 		while(SD_GetStatus() != SD_TRANSFER_OK);
 316              		.loc 1 112 35 view .LVU84
 317 0066 D3E7     		b	.L16
 318              	.LVL46:
 319              	.L22:
 123:DRIVER/FatFs/source/diskio.c **** 			break;
 320              		.loc 1 123 11 view .LVU85
 321 0068 0320     		movs	r0, #3
ARM GAS  C:\Users\86157\AppData\Local\Temp\cc0uxc89.s 			page 10


 322              	.LVL47:
 123:DRIVER/FatFs/source/diskio.c **** 			break;
 323              		.loc 1 123 11 view .LVU86
 324 006a D1E7     		b	.L16
 325              	.LVL48:
 326              	.L23:
 126:DRIVER/FatFs/source/diskio.c **** 			break;
 327              		.loc 1 126 11 view .LVU87
 328 006c 2046     		mov	r0, r4
 329              	.LVL49:
 126:DRIVER/FatFs/source/diskio.c **** 			break;
 330              		.loc 1 126 11 view .LVU88
 331 006e CFE7     		b	.L16
 332              	.L29:
 333              		.align	2
 334              	.L28:
 335 0070 00000000 		.word	SDCardInfo
 336              	.LBE4:
 337              		.cfi_endproc
 338              	.LFE31:
 340              		.section	.text.disk_write,"ax",%progbits
 341              		.align	1
 342              		.global	disk_write
 343              		.syntax unified
 344              		.thumb
 345              		.thumb_func
 347              	disk_write:
 348              	.LVL50:
 349              	.LFB32:
 135:DRIVER/FatFs/source/diskio.c **** 
 136:DRIVER/FatFs/source/diskio.c **** 
 137:DRIVER/FatFs/source/diskio.c **** 
 138:DRIVER/FatFs/source/diskio.c **** /*-----------------------------------------------------------------------*/
 139:DRIVER/FatFs/source/diskio.c **** /* Write Sector(s)                                                       */
 140:DRIVER/FatFs/source/diskio.c **** /*-----------------------------------------------------------------------*/
 141:DRIVER/FatFs/source/diskio.c **** 
 142:DRIVER/FatFs/source/diskio.c **** #if FF_FS_READONLY == 0
 143:DRIVER/FatFs/source/diskio.c **** 
 144:DRIVER/FatFs/source/diskio.c **** DRESULT disk_write (
 145:DRIVER/FatFs/source/diskio.c **** 	BYTE pdrv,			/* Physical drive nmuber to identify the drive */
 146:DRIVER/FatFs/source/diskio.c **** 	const BYTE *buff,	/* Data to be written */
 147:DRIVER/FatFs/source/diskio.c **** 	LBA_t sector,		/* Start sector in LBA */
 148:DRIVER/FatFs/source/diskio.c **** 	UINT count			/* Number of sectors to write */
 149:DRIVER/FatFs/source/diskio.c **** )
 150:DRIVER/FatFs/source/diskio.c **** {
 350              		.loc 1 150 1 is_stmt 1 view -0
 351              		.cfi_startproc
 352              		@ args = 0, pretend = 0, frame = 0
 353              		@ frame_needed = 0, uses_anonymous_args = 0
 354              		.loc 1 150 1 is_stmt 0 view .LVU90
 355 0000 10B5     		push	{r4, lr}
 356              	.LCFI6:
 357              		.cfi_def_cfa_offset 8
 358              		.cfi_offset 4, -8
 359              		.cfi_offset 14, -4
 360 0002 8C46     		mov	ip, r1
 361 0004 1146     		mov	r1, r2
ARM GAS  C:\Users\86157\AppData\Local\Temp\cc0uxc89.s 			page 11


 362              	.LVL51:
 151:DRIVER/FatFs/source/diskio.c **** 	switch (pdrv) {
 363              		.loc 1 151 2 is_stmt 1 view .LVU91
 364 0006 20B1     		cbz	r0, .L31
 365 0008 0446     		mov	r4, r0
 366 000a 0128     		cmp	r0, #1
 367 000c 1BD0     		beq	.L32
 368 000e 0420     		movs	r0, #4
 369              	.LVL52:
 370              	.L33:
 152:DRIVER/FatFs/source/diskio.c **** 	case DEV_SDCARD :
 153:DRIVER/FatFs/source/diskio.c **** 		SD_Error err_SDCard;
 154:DRIVER/FatFs/source/diskio.c **** 		if(count == 1){
 155:DRIVER/FatFs/source/diskio.c **** 	    	err_SDCard = SD_WriteBlock((uint8_t*)buff, sector * SECTOR_SIZE_SDCARD, SECTOR_SIZE_SDCARD);
 156:DRIVER/FatFs/source/diskio.c **** 		}else{
 157:DRIVER/FatFs/source/diskio.c **** 			err_SDCard = SD_WriteMultiBlocks((uint8_t*)buff, sector * SECTOR_SIZE_SDCARD, SECTOR_SIZE_SDCARD
 158:DRIVER/FatFs/source/diskio.c **** 		}
 159:DRIVER/FatFs/source/diskio.c **** 		if(err_SDCard != SD_OK){ return RES_ERROR; }
 160:DRIVER/FatFs/source/diskio.c **** 		/* Check if the Transfer is finished */
 161:DRIVER/FatFs/source/diskio.c **** 		err_SDCard = SD_WaitWriteOperation();
 162:DRIVER/FatFs/source/diskio.c **** 		if(err_SDCard != SD_OK){ return RES_ERROR; }
 163:DRIVER/FatFs/source/diskio.c **** 		while(SD_GetStatus() != SD_TRANSFER_OK);
 164:DRIVER/FatFs/source/diskio.c **** 		return RES_OK;
 165:DRIVER/FatFs/source/diskio.c **** 
 166:DRIVER/FatFs/source/diskio.c **** 	case DEV_FLASH_EX :
 167:DRIVER/FatFs/source/diskio.c **** 		Flash_EX_Errors_t err = Flash_EX_Write((uint8_t*)buff, sector * SECTOR_SIZE_FLASH_EX, count * SEC
 168:DRIVER/FatFs/source/diskio.c **** 		switch (err){
 169:DRIVER/FatFs/source/diskio.c **** 		case FLASH_EX_ERR_SUCCESS:
 170:DRIVER/FatFs/source/diskio.c **** 			return RES_OK;		// ÊàêÂäüËØªÂèñ
 171:DRIVER/FatFs/source/diskio.c **** 			break;
 172:DRIVER/FatFs/source/diskio.c **** 		case FLASH_EX_ERR_TIMEOUT:
 173:DRIVER/FatFs/source/diskio.c **** 			return RES_NOTRDY;	// ËøêË°åË∂ÖÊó∂
 174:DRIVER/FatFs/source/diskio.c **** 			break;
 175:DRIVER/FatFs/source/diskio.c **** 		case FLASH_EX_OVERFLOWED:
 176:DRIVER/FatFs/source/diskio.c **** 			return RES_ERROR;	// Âú∞ÂùÄÊ∫¢Âá∫
 177:DRIVER/FatFs/source/diskio.c **** 			break;
 178:DRIVER/FatFs/source/diskio.c **** 		default:
 179:DRIVER/FatFs/source/diskio.c **** 			return RES_PARERR;	// Not allowed
 180:DRIVER/FatFs/source/diskio.c **** 		}
 181:DRIVER/FatFs/source/diskio.c **** 	}
 182:DRIVER/FatFs/source/diskio.c **** 
 183:DRIVER/FatFs/source/diskio.c **** 	return RES_PARERR;
 184:DRIVER/FatFs/source/diskio.c **** }
 371              		.loc 1 184 1 is_stmt 0 view .LVU92
 372 0010 10BD     		pop	{r4, pc}
 373              	.LVL53:
 374              	.L31:
 375              	.LBB5:
 153:DRIVER/FatFs/source/diskio.c **** 		if(count == 1){
 376              		.loc 1 153 3 is_stmt 1 view .LVU93
 154:DRIVER/FatFs/source/diskio.c **** 	    	err_SDCard = SD_WriteBlock((uint8_t*)buff, sector * SECTOR_SIZE_SDCARD, SECTOR_SIZE_SDCARD);
 377              		.loc 1 154 3 view .LVU94
 154:DRIVER/FatFs/source/diskio.c **** 	    	err_SDCard = SD_WriteBlock((uint8_t*)buff, sector * SECTOR_SIZE_SDCARD, SECTOR_SIZE_SDCARD);
 378              		.loc 1 154 5 is_stmt 0 view .LVU95
 379 0012 012B     		cmp	r3, #1
 380 0014 08D0     		beq	.L43
 157:DRIVER/FatFs/source/diskio.c **** 		}
ARM GAS  C:\Users\86157\AppData\Local\Temp\cc0uxc89.s 			page 12


 381              		.loc 1 157 4 is_stmt 1 view .LVU96
 157:DRIVER/FatFs/source/diskio.c **** 		}
 382              		.loc 1 157 17 is_stmt 0 view .LVU97
 383 0016 4FF40072 		mov	r2, #512
 384 001a 4902     		lsls	r1, r1, #9
 385              	.LVL54:
 157:DRIVER/FatFs/source/diskio.c **** 		}
 386              		.loc 1 157 17 view .LVU98
 387 001c 6046     		mov	r0, ip
 388              	.LVL55:
 157:DRIVER/FatFs/source/diskio.c **** 		}
 389              		.loc 1 157 17 view .LVU99
 390 001e FFF7FEFF 		bl	SD_WriteMultiBlocks
 391              	.LVL56:
 392              	.L35:
 159:DRIVER/FatFs/source/diskio.c **** 		/* Check if the Transfer is finished */
 393              		.loc 1 159 3 is_stmt 1 view .LVU100
 159:DRIVER/FatFs/source/diskio.c **** 		/* Check if the Transfer is finished */
 394              		.loc 1 159 5 is_stmt 0 view .LVU101
 395 0022 40B1     		cbz	r0, .L44
 159:DRIVER/FatFs/source/diskio.c **** 		/* Check if the Transfer is finished */
 396              		.loc 1 159 35 view .LVU102
 397 0024 0120     		movs	r0, #1
 398              	.LVL57:
 159:DRIVER/FatFs/source/diskio.c **** 		/* Check if the Transfer is finished */
 399              		.loc 1 159 35 view .LVU103
 400 0026 F3E7     		b	.L33
 401              	.LVL58:
 402              	.L43:
 155:DRIVER/FatFs/source/diskio.c **** 		}else{
 403              		.loc 1 155 7 is_stmt 1 view .LVU104
 155:DRIVER/FatFs/source/diskio.c **** 		}else{
 404              		.loc 1 155 20 is_stmt 0 view .LVU105
 405 0028 4FF40072 		mov	r2, #512
 406 002c 4902     		lsls	r1, r1, #9
 407              	.LVL59:
 155:DRIVER/FatFs/source/diskio.c **** 		}else{
 408              		.loc 1 155 20 view .LVU106
 409 002e 6046     		mov	r0, ip
 410              	.LVL60:
 155:DRIVER/FatFs/source/diskio.c **** 		}else{
 411              		.loc 1 155 20 view .LVU107
 412 0030 FFF7FEFF 		bl	SD_WriteBlock
 413              	.LVL61:
 155:DRIVER/FatFs/source/diskio.c **** 		}else{
 414              		.loc 1 155 20 view .LVU108
 415 0034 F5E7     		b	.L35
 416              	.L44:
 161:DRIVER/FatFs/source/diskio.c **** 		if(err_SDCard != SD_OK){ return RES_ERROR; }
 417              		.loc 1 161 3 is_stmt 1 view .LVU109
 161:DRIVER/FatFs/source/diskio.c **** 		if(err_SDCard != SD_OK){ return RES_ERROR; }
 418              		.loc 1 161 16 is_stmt 0 view .LVU110
 419 0036 FFF7FEFF 		bl	SD_WaitWriteOperation
 420              	.LVL62:
 162:DRIVER/FatFs/source/diskio.c **** 		while(SD_GetStatus() != SD_TRANSFER_OK);
 421              		.loc 1 162 3 is_stmt 1 view .LVU111
 162:DRIVER/FatFs/source/diskio.c **** 		while(SD_GetStatus() != SD_TRANSFER_OK);
ARM GAS  C:\Users\86157\AppData\Local\Temp\cc0uxc89.s 			page 13


 422              		.loc 1 162 5 is_stmt 0 view .LVU112
 423 003a 88B9     		cbnz	r0, .L38
 424              	.LVL63:
 425              	.L36:
 163:DRIVER/FatFs/source/diskio.c **** 		return RES_OK;
 426              		.loc 1 163 24 is_stmt 1 discriminator 1 view .LVU113
 163:DRIVER/FatFs/source/diskio.c **** 		return RES_OK;
 427              		.loc 1 163 9 is_stmt 0 discriminator 1 view .LVU114
 428 003c FFF7FEFF 		bl	SD_GetStatus
 429              	.LVL64:
 163:DRIVER/FatFs/source/diskio.c **** 		return RES_OK;
 430              		.loc 1 163 24 discriminator 1 view .LVU115
 431 0040 0028     		cmp	r0, #0
 432 0042 FBD1     		bne	.L36
 433 0044 E4E7     		b	.L33
 434              	.LVL65:
 435              	.L32:
 167:DRIVER/FatFs/source/diskio.c **** 		switch (err){
 436              		.loc 1 167 3 is_stmt 1 view .LVU116
 167:DRIVER/FatFs/source/diskio.c **** 		switch (err){
 437              		.loc 1 167 27 is_stmt 0 view .LVU117
 438 0046 1A03     		lsls	r2, r3, #12
 439 0048 0903     		lsls	r1, r1, #12
 440              	.LVL66:
 167:DRIVER/FatFs/source/diskio.c **** 		switch (err){
 441              		.loc 1 167 27 view .LVU118
 442 004a 6046     		mov	r0, ip
 443              	.LVL67:
 167:DRIVER/FatFs/source/diskio.c **** 		switch (err){
 444              		.loc 1 167 27 view .LVU119
 445 004c FFF7FEFF 		bl	Flash_EX_Write
 446              	.LVL68:
 168:DRIVER/FatFs/source/diskio.c **** 		case FLASH_EX_ERR_SUCCESS:
 447              		.loc 1 168 3 is_stmt 1 view .LVU120
 448 0050 0128     		cmp	r0, #1
 449 0052 07D0     		beq	.L39
 450 0054 0228     		cmp	r0, #2
 451 0056 07D0     		beq	.L40
 452 0058 0028     		cmp	r0, #0
 453 005a D9D0     		beq	.L33
 179:DRIVER/FatFs/source/diskio.c **** 		}
 454              		.loc 1 179 11 is_stmt 0 view .LVU121
 455 005c 0420     		movs	r0, #4
 456              	.LVL69:
 179:DRIVER/FatFs/source/diskio.c **** 		}
 457              		.loc 1 179 11 view .LVU122
 458 005e D7E7     		b	.L33
 459              	.LVL70:
 460              	.L38:
 162:DRIVER/FatFs/source/diskio.c **** 		while(SD_GetStatus() != SD_TRANSFER_OK);
 461              		.loc 1 162 35 view .LVU123
 462 0060 0120     		movs	r0, #1
 463              	.LVL71:
 162:DRIVER/FatFs/source/diskio.c **** 		while(SD_GetStatus() != SD_TRANSFER_OK);
 464              		.loc 1 162 35 view .LVU124
 465 0062 D5E7     		b	.L33
 466              	.LVL72:
ARM GAS  C:\Users\86157\AppData\Local\Temp\cc0uxc89.s 			page 14


 467              	.L39:
 173:DRIVER/FatFs/source/diskio.c **** 			break;
 468              		.loc 1 173 11 view .LVU125
 469 0064 0320     		movs	r0, #3
 470              	.LVL73:
 173:DRIVER/FatFs/source/diskio.c **** 			break;
 471              		.loc 1 173 11 view .LVU126
 472 0066 D3E7     		b	.L33
 473              	.LVL74:
 474              	.L40:
 176:DRIVER/FatFs/source/diskio.c **** 			break;
 475              		.loc 1 176 11 view .LVU127
 476 0068 2046     		mov	r0, r4
 477              	.LVL75:
 176:DRIVER/FatFs/source/diskio.c **** 			break;
 478              		.loc 1 176 11 view .LVU128
 479 006a D1E7     		b	.L33
 480              	.LBE5:
 481              		.cfi_endproc
 482              	.LFE32:
 484              		.global	__aeabi_uldivmod
 485              		.section	.text.disk_ioctl,"ax",%progbits
 486              		.align	1
 487              		.global	disk_ioctl
 488              		.syntax unified
 489              		.thumb
 490              		.thumb_func
 492              	disk_ioctl:
 493              	.LVL76:
 494              	.LFB33:
 185:DRIVER/FatFs/source/diskio.c **** 
 186:DRIVER/FatFs/source/diskio.c **** #endif
 187:DRIVER/FatFs/source/diskio.c **** 
 188:DRIVER/FatFs/source/diskio.c **** 
 189:DRIVER/FatFs/source/diskio.c **** /*-----------------------------------------------------------------------*/
 190:DRIVER/FatFs/source/diskio.c **** /* Miscellaneous FunctionsËé∑Âèñ‰∏Ä‰∫õËäØÁâá‰ø°ÊÅØ                                */
 191:DRIVER/FatFs/source/diskio.c **** /*-----------------------------------------------------------------------*/
 192:DRIVER/FatFs/source/diskio.c **** 
 193:DRIVER/FatFs/source/diskio.c **** DRESULT disk_ioctl (
 194:DRIVER/FatFs/source/diskio.c **** 	BYTE pdrv,		/* Physical drive nmuber (0..) */
 195:DRIVER/FatFs/source/diskio.c **** 	BYTE cmd,		/* Control code */
 196:DRIVER/FatFs/source/diskio.c **** 	void *buff		/* Buffer to send/receive control data */
 197:DRIVER/FatFs/source/diskio.c **** )
 198:DRIVER/FatFs/source/diskio.c **** {
 495              		.loc 1 198 1 is_stmt 1 view -0
 496              		.cfi_startproc
 497              		@ args = 0, pretend = 0, frame = 0
 498              		@ frame_needed = 0, uses_anonymous_args = 0
 499              		.loc 1 198 1 is_stmt 0 view .LVU130
 500 0000 38B5     		push	{r3, r4, r5, lr}
 501              	.LCFI7:
 502              		.cfi_def_cfa_offset 16
 503              		.cfi_offset 3, -16
 504              		.cfi_offset 4, -12
 505              		.cfi_offset 5, -8
 506              		.cfi_offset 14, -4
 507 0002 1546     		mov	r5, r2
ARM GAS  C:\Users\86157\AppData\Local\Temp\cc0uxc89.s 			page 15


 199:DRIVER/FatFs/source/diskio.c **** 	DRESULT res = RES_OK;
 508              		.loc 1 199 2 is_stmt 1 view .LVU131
 509              	.LVL77:
 200:DRIVER/FatFs/source/diskio.c **** 
 201:DRIVER/FatFs/source/diskio.c **** 	switch (pdrv) {
 510              		.loc 1 201 2 view .LVU132
 511 0004 0446     		mov	r4, r0
 512 0006 18B1     		cbz	r0, .L46
 513 0008 0128     		cmp	r0, #1
 514 000a 18D0     		beq	.L47
 515 000c 0420     		movs	r0, #4
 516              	.LVL78:
 517              	.L48:
 202:DRIVER/FatFs/source/diskio.c **** 	case DEV_SDCARD :
 203:DRIVER/FatFs/source/diskio.c **** 		switch (cmd)
 204:DRIVER/FatFs/source/diskio.c **** 		{
 205:DRIVER/FatFs/source/diskio.c **** 		case GET_SECTOR_COUNT:	// ÊâáÂå∫‰∏™Êï∞
 206:DRIVER/FatFs/source/diskio.c **** 			*(LBA_t*)buff = SDCardInfo.CardCapacity / SDCardInfo.CardBlockSize;
 207:DRIVER/FatFs/source/diskio.c **** 			break;
 208:DRIVER/FatFs/source/diskio.c **** 		case GET_SECTOR_SIZE:	// ÊâáÂå∫Â§ßÂ∞è
 209:DRIVER/FatFs/source/diskio.c **** 			*(WORD*)buff = SDCardInfo.CardBlockSize;
 210:DRIVER/FatFs/source/diskio.c **** 			break;
 211:DRIVER/FatFs/source/diskio.c **** 		case GET_BLOCK_SIZE:	// FatFs blockÁöÑÂê´‰πâÊòØÊúÄÂ∞èÊì¶Èô§Á≤íÂ∫¶ÔºåËÄåFlashÁöÑblockÂê´‰πâÊòØ16‰∏
 212:DRIVER/FatFs/source/diskio.c **** 			*(DWORD*)buff = 1;
 213:DRIVER/FatFs/source/diskio.c **** 			break;
 214:DRIVER/FatFs/source/diskio.c **** 		default:
 215:DRIVER/FatFs/source/diskio.c **** 			break;
 216:DRIVER/FatFs/source/diskio.c **** 		}
 217:DRIVER/FatFs/source/diskio.c **** 		return res;
 218:DRIVER/FatFs/source/diskio.c **** 
 219:DRIVER/FatFs/source/diskio.c **** 	case DEV_FLASH_EX :
 220:DRIVER/FatFs/source/diskio.c **** 		switch (cmd)
 221:DRIVER/FatFs/source/diskio.c **** 		{
 222:DRIVER/FatFs/source/diskio.c **** 		case GET_SECTOR_COUNT:	// ÊâáÂå∫‰∏™Êï∞
 223:DRIVER/FatFs/source/diskio.c **** 			*(LBA_t*)buff = 4096;
 224:DRIVER/FatFs/source/diskio.c **** 			break;
 225:DRIVER/FatFs/source/diskio.c **** 		case GET_SECTOR_SIZE:	// ÊâáÂå∫Â§ßÂ∞è
 226:DRIVER/FatFs/source/diskio.c **** 			*(WORD*)buff = SECTOR_SIZE_FLASH_EX;
 227:DRIVER/FatFs/source/diskio.c **** 			break;
 228:DRIVER/FatFs/source/diskio.c **** 		case GET_BLOCK_SIZE:	// FatFs blockÁöÑÂê´‰πâÊòØÊúÄÂ∞èÊì¶Èô§Á≤íÂ∫¶ÔºåËÄåFlashÁöÑblockÂê´‰πâÊòØ16‰∏
 229:DRIVER/FatFs/source/diskio.c **** 			*(DWORD*)buff = 1;
 230:DRIVER/FatFs/source/diskio.c **** 			break;
 231:DRIVER/FatFs/source/diskio.c **** 		default:
 232:DRIVER/FatFs/source/diskio.c **** 			break;
 233:DRIVER/FatFs/source/diskio.c **** 		}
 234:DRIVER/FatFs/source/diskio.c **** 		return res;
 235:DRIVER/FatFs/source/diskio.c **** 	}
 236:DRIVER/FatFs/source/diskio.c **** 
 237:DRIVER/FatFs/source/diskio.c **** 	return RES_PARERR;
 238:DRIVER/FatFs/source/diskio.c **** }
 518              		.loc 1 238 1 is_stmt 0 view .LVU133
 519 000e 38BD     		pop	{r3, r4, r5, pc}
 520              	.LVL79:
 521              	.L46:
 203:DRIVER/FatFs/source/diskio.c **** 		{
 522              		.loc 1 203 3 is_stmt 1 view .LVU134
 523 0010 0229     		cmp	r1, #2
ARM GAS  C:\Users\86157\AppData\Local\Temp\cc0uxc89.s 			page 16


 524 0012 0DD0     		beq	.L49
 525 0014 0329     		cmp	r1, #3
 526 0016 0FD0     		beq	.L50
 527 0018 0129     		cmp	r1, #1
 528 001a F8D1     		bne	.L48
 206:DRIVER/FatFs/source/diskio.c **** 			break;
 529              		.loc 1 206 4 view .LVU135
 206:DRIVER/FatFs/source/diskio.c **** 			break;
 530              		.loc 1 206 30 is_stmt 0 view .LVU136
 531 001c 1349     		ldr	r1, .L57
 532              	.LVL80:
 206:DRIVER/FatFs/source/diskio.c **** 			break;
 533              		.loc 1 206 44 view .LVU137
 534 001e 0A6D     		ldr	r2, [r1, #80]
 535              	.LVL81:
 206:DRIVER/FatFs/source/diskio.c **** 			break;
 536              		.loc 1 206 44 view .LVU138
 537 0020 0023     		movs	r3, #0
 538 0022 D1E91201 		ldrd	r0, [r1, #72]
 539              	.LVL82:
 206:DRIVER/FatFs/source/diskio.c **** 			break;
 540              		.loc 1 206 44 view .LVU139
 541 0026 FFF7FEFF 		bl	__aeabi_uldivmod
 542              	.LVL83:
 206:DRIVER/FatFs/source/diskio.c **** 			break;
 543              		.loc 1 206 18 view .LVU140
 544 002a 2860     		str	r0, [r5]
 207:DRIVER/FatFs/source/diskio.c **** 		case GET_SECTOR_SIZE:	// ÊâáÂå∫Â§ßÂ∞è
 545              		.loc 1 207 4 is_stmt 1 view .LVU141
 217:DRIVER/FatFs/source/diskio.c **** 
 546              		.loc 1 217 10 is_stmt 0 view .LVU142
 547 002c 2046     		mov	r0, r4
 207:DRIVER/FatFs/source/diskio.c **** 		case GET_SECTOR_SIZE:	// ÊâáÂå∫Â§ßÂ∞è
 548              		.loc 1 207 4 view .LVU143
 549 002e EEE7     		b	.L48
 550              	.LVL84:
 551              	.L49:
 209:DRIVER/FatFs/source/diskio.c **** 			break;
 552              		.loc 1 209 4 is_stmt 1 view .LVU144
 209:DRIVER/FatFs/source/diskio.c **** 			break;
 553              		.loc 1 209 29 is_stmt 0 view .LVU145
 554 0030 0E4B     		ldr	r3, .L57
 555 0032 1B6D     		ldr	r3, [r3, #80]
 209:DRIVER/FatFs/source/diskio.c **** 			break;
 556              		.loc 1 209 17 view .LVU146
 557 0034 1380     		strh	r3, [r2]	@ movhi
 210:DRIVER/FatFs/source/diskio.c **** 		case GET_BLOCK_SIZE:	// FatFs blockÁöÑÂê´‰πâÊòØÊúÄÂ∞èÊì¶Èô§Á≤íÂ∫¶ÔºåËÄåFlashÁöÑblockÂê´‰πâÊòØ16‰∏
 558              		.loc 1 210 4 is_stmt 1 view .LVU147
 559 0036 EAE7     		b	.L48
 560              	.L50:
 212:DRIVER/FatFs/source/diskio.c **** 			break;
 561              		.loc 1 212 4 view .LVU148
 212:DRIVER/FatFs/source/diskio.c **** 			break;
 562              		.loc 1 212 18 is_stmt 0 view .LVU149
 563 0038 0123     		movs	r3, #1
 564 003a 1360     		str	r3, [r2]
 213:DRIVER/FatFs/source/diskio.c **** 		default:
ARM GAS  C:\Users\86157\AppData\Local\Temp\cc0uxc89.s 			page 17


 565              		.loc 1 213 4 is_stmt 1 view .LVU150
 566 003c E7E7     		b	.L48
 567              	.L47:
 220:DRIVER/FatFs/source/diskio.c **** 		{
 568              		.loc 1 220 3 view .LVU151
 569 003e 0229     		cmp	r1, #2
 570 0040 0AD0     		beq	.L51
 571 0042 0329     		cmp	r1, #3
 572 0044 0DD0     		beq	.L52
 573 0046 0129     		cmp	r1, #1
 574 0048 01D0     		beq	.L56
 575 004a 0020     		movs	r0, #0
 576              	.LVL85:
 220:DRIVER/FatFs/source/diskio.c **** 		{
 577              		.loc 1 220 3 is_stmt 0 view .LVU152
 578 004c DFE7     		b	.L48
 579              	.LVL86:
 580              	.L56:
 223:DRIVER/FatFs/source/diskio.c **** 			break;
 581              		.loc 1 223 4 is_stmt 1 view .LVU153
 223:DRIVER/FatFs/source/diskio.c **** 			break;
 582              		.loc 1 223 18 is_stmt 0 view .LVU154
 583 004e 4FF48053 		mov	r3, #4096
 584 0052 1360     		str	r3, [r2]
 224:DRIVER/FatFs/source/diskio.c **** 		case GET_SECTOR_SIZE:	// ÊâáÂå∫Â§ßÂ∞è
 585              		.loc 1 224 4 is_stmt 1 view .LVU155
 234:DRIVER/FatFs/source/diskio.c **** 	}
 586              		.loc 1 234 10 is_stmt 0 view .LVU156
 587 0054 0020     		movs	r0, #0
 588              	.LVL87:
 224:DRIVER/FatFs/source/diskio.c **** 		case GET_SECTOR_SIZE:	// ÊâáÂå∫Â§ßÂ∞è
 589              		.loc 1 224 4 view .LVU157
 590 0056 DAE7     		b	.L48
 591              	.LVL88:
 592              	.L51:
 226:DRIVER/FatFs/source/diskio.c **** 			break;
 593              		.loc 1 226 4 is_stmt 1 view .LVU158
 226:DRIVER/FatFs/source/diskio.c **** 			break;
 594              		.loc 1 226 17 is_stmt 0 view .LVU159
 595 0058 4FF48053 		mov	r3, #4096
 596 005c 1380     		strh	r3, [r2]	@ movhi
 227:DRIVER/FatFs/source/diskio.c **** 		case GET_BLOCK_SIZE:	// FatFs blockÁöÑÂê´‰πâÊòØÊúÄÂ∞èÊì¶Èô§Á≤íÂ∫¶ÔºåËÄåFlashÁöÑblockÂê´‰πâÊòØ16‰∏
 597              		.loc 1 227 4 is_stmt 1 view .LVU160
 234:DRIVER/FatFs/source/diskio.c **** 	}
 598              		.loc 1 234 10 is_stmt 0 view .LVU161
 599 005e 0020     		movs	r0, #0
 600              	.LVL89:
 227:DRIVER/FatFs/source/diskio.c **** 		case GET_BLOCK_SIZE:	// FatFs blockÁöÑÂê´‰πâÊòØÊúÄÂ∞èÊì¶Èô§Á≤íÂ∫¶ÔºåËÄåFlashÁöÑblockÂê´‰πâÊòØ16‰∏
 601              		.loc 1 227 4 view .LVU162
 602 0060 D5E7     		b	.L48
 603              	.LVL90:
 604              	.L52:
 229:DRIVER/FatFs/source/diskio.c **** 			break;
 605              		.loc 1 229 4 is_stmt 1 view .LVU163
 229:DRIVER/FatFs/source/diskio.c **** 			break;
 606              		.loc 1 229 18 is_stmt 0 view .LVU164
 607 0062 0123     		movs	r3, #1
ARM GAS  C:\Users\86157\AppData\Local\Temp\cc0uxc89.s 			page 18


 608 0064 1360     		str	r3, [r2]
 230:DRIVER/FatFs/source/diskio.c **** 		default:
 609              		.loc 1 230 4 is_stmt 1 view .LVU165
 234:DRIVER/FatFs/source/diskio.c **** 	}
 610              		.loc 1 234 10 is_stmt 0 view .LVU166
 611 0066 0020     		movs	r0, #0
 612              	.LVL91:
 230:DRIVER/FatFs/source/diskio.c **** 		default:
 613              		.loc 1 230 4 view .LVU167
 614 0068 D1E7     		b	.L48
 615              	.L58:
 616 006a 00BF     		.align	2
 617              	.L57:
 618 006c 00000000 		.word	SDCardInfo
 619              		.cfi_endproc
 620              	.LFE33:
 622              		.section	.text.get_fattime,"ax",%progbits
 623              		.align	1
 624              		.global	get_fattime
 625              		.syntax unified
 626              		.thumb
 627              		.thumb_func
 629              	get_fattime:
 630              	.LFB34:
 239:DRIVER/FatFs/source/diskio.c **** 
 240:DRIVER/FatFs/source/diskio.c **** /**
 241:DRIVER/FatFs/source/diskio.c ****  * @brief 	Ëé∑ÂèñÊñá‰ª∂Êó∂Èó¥
 242:DRIVER/FatFs/source/diskio.c ****  * @note 	STM32ÊöÇÊó∂Êó†Ê≥ïËé∑ÂèñÊó∂Èó¥ÔºåËøîÂõû0
 243:DRIVER/FatFs/source/diskio.c ****  * TODO: Â¶ÇÊûúÈúÄË¶ÅËé∑ÂèñÂÆûÊó∂Êó∂Èó¥ÔºåÈúÄË¶ÅÂèÇËÄÉÊïôÁ®ãRTCÁ´†ËäÇ
 244:DRIVER/FatFs/source/diskio.c ****  */
 245:DRIVER/FatFs/source/diskio.c **** DWORD get_fattime (void){
 631              		.loc 1 245 25 is_stmt 1 view -0
 632              		.cfi_startproc
 633              		@ args = 0, pretend = 0, frame = 0
 634              		@ frame_needed = 0, uses_anonymous_args = 0
 635              		@ link register save eliminated.
 246:DRIVER/FatFs/source/diskio.c **** 	return 0;
 636              		.loc 1 246 2 view .LVU169
 247:DRIVER/FatFs/source/diskio.c **** }...
 637              		.loc 1 247 1 is_stmt 0 view .LVU170
 638 0000 0020     		movs	r0, #0
 639 0002 7047     		bx	lr
 640              		.cfi_endproc
 641              	.LFE34:
 643              		.text
 644              	.Letext0:
 645              		.file 2 "e:\\windows\\programs\\arm-gnu-toolchain-12.2.mpacbti-bet1-mingw-w64-i686-arm-none-eabi\\
 646              		.file 3 "e:\\windows\\programs\\arm-gnu-toolchain-12.2.mpacbti-bet1-mingw-w64-i686-arm-none-eabi\\
 647              		.file 4 "DRIVER/FatFs/source/ff.h"
 648              		.file 5 "DRIVER/FatFs/source/diskio.h"
 649              		.file 6 "HW/FLASH/External_Flash/exFlash.h"
 650              		.file 7 "HW/SDCard/stm32_eval_sdio_sd.h"
 651              		.file 8 "STM32F10x_FWLib/inc/misc.h"
 652              		.file 9 "SYSTEM/delay/delay.h"
ARM GAS  C:\Users\86157\AppData\Local\Temp\cc0uxc89.s 			page 19


DEFINED SYMBOLS
                            *ABS*:00000000 diskio.c
C:\Users\86157\AppData\Local\Temp\cc0uxc89.s:19     .text.disk_status:00000000 $t
C:\Users\86157\AppData\Local\Temp\cc0uxc89.s:25     .text.disk_status:00000000 disk_status
C:\Users\86157\AppData\Local\Temp\cc0uxc89.s:93     .text.disk_initialize:00000000 $t
C:\Users\86157\AppData\Local\Temp\cc0uxc89.s:99     .text.disk_initialize:00000000 disk_initialize
C:\Users\86157\AppData\Local\Temp\cc0uxc89.s:188    .text.disk_read:00000000 $t
C:\Users\86157\AppData\Local\Temp\cc0uxc89.s:194    .text.disk_read:00000000 disk_read
C:\Users\86157\AppData\Local\Temp\cc0uxc89.s:335    .text.disk_read:00000070 $d
C:\Users\86157\AppData\Local\Temp\cc0uxc89.s:341    .text.disk_write:00000000 $t
C:\Users\86157\AppData\Local\Temp\cc0uxc89.s:347    .text.disk_write:00000000 disk_write
C:\Users\86157\AppData\Local\Temp\cc0uxc89.s:486    .text.disk_ioctl:00000000 $t
C:\Users\86157\AppData\Local\Temp\cc0uxc89.s:492    .text.disk_ioctl:00000000 disk_ioctl
C:\Users\86157\AppData\Local\Temp\cc0uxc89.s:618    .text.disk_ioctl:0000006c $d
C:\Users\86157\AppData\Local\Temp\cc0uxc89.s:623    .text.get_fattime:00000000 $t
C:\Users\86157\AppData\Local\Temp\cc0uxc89.s:629    .text.get_fattime:00000000 get_fattime

UNDEFINED SYMBOLS
Flash_EX_Check_JEDEC_ID
NVIC_PriorityGroupConfig
SD_Init
delay_init
USART1_Init
Flash_EX_Init
Flash_EX_Wake_Up
SD_ReadMultiBlocks
SD_ReadBlock
SD_WaitReadOperation
SD_GetStatus
Flash_EX_Read
SDCardInfo
SD_WriteMultiBlocks
SD_WriteBlock
SD_WaitWriteOperation
Flash_EX_Write
__aeabi_uldivmod
