ARM GAS  C:\Users\86157\AppData\Local\Temp\ccszuV1u.s 			page 1


   1              		.cpu cortex-m3
   2              		.arch armv7-m
   3              		.fpu softvfp
   4              		.eabi_attribute 20, 1
   5              		.eabi_attribute 21, 1
   6              		.eabi_attribute 23, 3
   7              		.eabi_attribute 24, 1
   8              		.eabi_attribute 25, 1
   9              		.eabi_attribute 26, 1
  10              		.eabi_attribute 30, 1
  11              		.eabi_attribute 34, 1
  12              		.eabi_attribute 18, 4
  13              		.file	"exFlash.c"
  14              		.text
  15              	.Ltext0:
  16              		.cfi_sections	.debug_frame
  17              		.file 1 "HW/FLASH/External_Flash/exFlash.c"
  18              		.section	.text.Flash_EX_Init,"ax",%progbits
  19              		.align	1
  20              		.global	Flash_EX_Init
  21              		.syntax unified
  22              		.thumb
  23              		.thumb_func
  25              	Flash_EX_Init:
  26              	.LFB32:
   1:HW/FLASH/External_Flash/exFlash.c **** #include"stdio.h"
   2:HW/FLASH/External_Flash/exFlash.c **** #include"stdbool.h"
   3:HW/FLASH/External_Flash/exFlash.c **** #include"stm32f10x.h"
   4:HW/FLASH/External_Flash/exFlash.c **** #include"stm32f10x_spi.h"
   5:HW/FLASH/External_Flash/exFlash.c **** #include"delay.h"
   6:HW/FLASH/External_Flash/exFlash.c **** 
   7:HW/FLASH/External_Flash/exFlash.c **** /**
   8:HW/FLASH/External_Flash/exFlash.c ****  * @brief Áî®SPIÂçèËÆÆËØªÂÜôÂ§ñÈÉ®FLASH
   9:HW/FLASH/External_Flash/exFlash.c ****  * @note  NM25Q128EVBÈáçÁΩÆÂêéÁ¨¨‰∏Ä‰∏™commandÊúâÈóÆÈ¢òÔºåÁî®Wake UpÂáΩÊï∞Ê∂àËÄóÂÆÉ
  10:HW/FLASH/External_Flash/exFlash.c ****  * TODO:ÊµãËØï‰∏Ä‰∏ã‰∏çÂêåSPIÊ®°ÂºèËÉΩ‰∏çËÉΩËØªÂÜôflash
  11:HW/FLASH/External_Flash/exFlash.c ****  * TODO:ËØªÂÜôÂú∞ÂùÄË∂äÁïåÊ£ÄÊµã
  12:HW/FLASH/External_Flash/exFlash.c ****  */
  13:HW/FLASH/External_Flash/exFlash.c **** 
  14:HW/FLASH/External_Flash/exFlash.c **** #define MIN(a, b) (a < b)? a: b 
  15:HW/FLASH/External_Flash/exFlash.c **** 
  16:HW/FLASH/External_Flash/exFlash.c **** /* ÁâáÈÄâ‰ø°Âè∑ÊéßÂà∂ */
  17:HW/FLASH/External_Flash/exFlash.c **** #define Flash_EX_CS_Low()   GPIO_ResetBits(GPIOB, GPIO_Pin_12)
  18:HW/FLASH/External_Flash/exFlash.c **** #define Flash_EX_CS_High()  GPIO_SetBits(GPIOB, GPIO_Pin_12)
  19:HW/FLASH/External_Flash/exFlash.c **** 
  20:HW/FLASH/External_Flash/exFlash.c **** /* FLASHÊï∞ÊçÆ */
  21:HW/FLASH/External_Flash/exFlash.c **** #define FLASH_EX_SIZE 128*1024*1024     // flashÂÜÖÂ≠òÂ§ßÂ∞è
  22:HW/FLASH/External_Flash/exFlash.c **** 
  23:HW/FLASH/External_Flash/exFlash.c **** void Flash_EX_Init(){
  27              		.loc 1 23 21 view -0
  28              		.cfi_startproc
  29              		@ args = 0, pretend = 0, frame = 24
  30              		@ frame_needed = 0, uses_anonymous_args = 0
  31 0000 F0B5     		push	{r4, r5, r6, r7, lr}
  32              	.LCFI0:
  33              		.cfi_def_cfa_offset 20
  34              		.cfi_offset 4, -20
  35              		.cfi_offset 5, -16
ARM GAS  C:\Users\86157\AppData\Local\Temp\ccszuV1u.s 			page 2


  36              		.cfi_offset 6, -12
  37              		.cfi_offset 7, -8
  38              		.cfi_offset 14, -4
  39 0002 87B0     		sub	sp, sp, #28
  40              	.LCFI1:
  41              		.cfi_def_cfa_offset 48
  24:HW/FLASH/External_Flash/exFlash.c ****     /* ‰ΩøËÉΩÊó∂Èíü */
  25:HW/FLASH/External_Flash/exFlash.c ****     RCC_APB2PeriphClockCmd(RCC_APB2Periph_GPIOB, ENABLE);
  42              		.loc 1 25 5 view .LVU1
  43 0004 0121     		movs	r1, #1
  44 0006 0820     		movs	r0, #8
  45 0008 FFF7FEFF 		bl	RCC_APB2PeriphClockCmd
  46              	.LVL0:
  26:HW/FLASH/External_Flash/exFlash.c ****     RCC_APB1PeriphClockCmd(RCC_APB1Periph_SPI2, ENABLE);
  47              		.loc 1 26 5 view .LVU2
  48 000c 0121     		movs	r1, #1
  49 000e 4FF48040 		mov	r0, #16384
  50 0012 FFF7FEFF 		bl	RCC_APB1PeriphClockCmd
  51              	.LVL1:
  27:HW/FLASH/External_Flash/exFlash.c ****     /* ÈÖçÁΩÆGPIOÂºïËÑö */
  28:HW/FLASH/External_Flash/exFlash.c ****     GPIO_InitTypeDef gpioDef;
  52              		.loc 1 28 5 view .LVU3
  29:HW/FLASH/External_Flash/exFlash.c ****     gpioDef.GPIO_Speed  = GPIO_Speed_50MHz;
  53              		.loc 1 29 5 view .LVU4
  54              		.loc 1 29 25 is_stmt 0 view .LVU5
  55 0016 0323     		movs	r3, #3
  56 0018 8DF81630 		strb	r3, [sp, #22]
  30:HW/FLASH/External_Flash/exFlash.c ****     gpioDef.GPIO_Pin    = GPIO_Pin_13 | GPIO_Pin_15;         // SCK MOSI
  57              		.loc 1 30 5 is_stmt 1 view .LVU6
  58              		.loc 1 30 25 is_stmt 0 view .LVU7
  59 001c 4FF42043 		mov	r3, #40960
  60 0020 ADF81430 		strh	r3, [sp, #20]	@ movhi
  31:HW/FLASH/External_Flash/exFlash.c ****     gpioDef.GPIO_Mode   = GPIO_Mode_AF_PP;
  61              		.loc 1 31 5 is_stmt 1 view .LVU8
  62              		.loc 1 31 25 is_stmt 0 view .LVU9
  63 0024 1823     		movs	r3, #24
  64 0026 8DF81730 		strb	r3, [sp, #23]
  32:HW/FLASH/External_Flash/exFlash.c ****     GPIO_Init(GPIOB, &gpioDef);
  65              		.loc 1 32 5 is_stmt 1 view .LVU10
  66 002a 224C     		ldr	r4, .L3
  67 002c 05A9     		add	r1, sp, #20
  68 002e 2046     		mov	r0, r4
  69 0030 FFF7FEFF 		bl	GPIO_Init
  70              	.LVL2:
  33:HW/FLASH/External_Flash/exFlash.c ****     gpioDef.GPIO_Pin    = GPIO_Pin_14;                       // MISO
  71              		.loc 1 33 5 view .LVU11
  72              		.loc 1 33 25 is_stmt 0 view .LVU12
  73 0034 4FF48043 		mov	r3, #16384
  74 0038 ADF81430 		strh	r3, [sp, #20]	@ movhi
  34:HW/FLASH/External_Flash/exFlash.c ****     gpioDef.GPIO_Mode   = GPIO_Mode_IPU;
  75              		.loc 1 34 5 is_stmt 1 view .LVU13
  76              		.loc 1 34 25 is_stmt 0 view .LVU14
  77 003c 4823     		movs	r3, #72
  78 003e 8DF81730 		strb	r3, [sp, #23]
  35:HW/FLASH/External_Flash/exFlash.c ****     GPIO_Init(GPIOB, &gpioDef);
  79              		.loc 1 35 5 is_stmt 1 view .LVU15
  80 0042 05A9     		add	r1, sp, #20
ARM GAS  C:\Users\86157\AppData\Local\Temp\ccszuV1u.s 			page 3


  81 0044 2046     		mov	r0, r4
  82 0046 FFF7FEFF 		bl	GPIO_Init
  83              	.LVL3:
  36:HW/FLASH/External_Flash/exFlash.c ****     gpioDef.GPIO_Pin    = GPIO_Pin_12;                       // CS
  84              		.loc 1 36 5 view .LVU16
  85              		.loc 1 36 25 is_stmt 0 view .LVU17
  86 004a 4FF48057 		mov	r7, #4096
  87 004e ADF81470 		strh	r7, [sp, #20]	@ movhi
  37:HW/FLASH/External_Flash/exFlash.c ****     gpioDef.GPIO_Mode   = GPIO_Mode_Out_PP;
  88              		.loc 1 37 5 is_stmt 1 view .LVU18
  89              		.loc 1 37 25 is_stmt 0 view .LVU19
  90 0052 1023     		movs	r3, #16
  91 0054 8DF81730 		strb	r3, [sp, #23]
  38:HW/FLASH/External_Flash/exFlash.c ****     GPIO_Init(GPIOB, &gpioDef);
  92              		.loc 1 38 5 is_stmt 1 view .LVU20
  93 0058 05A9     		add	r1, sp, #20
  94 005a 2046     		mov	r0, r4
  95 005c FFF7FEFF 		bl	GPIO_Init
  96              	.LVL4:
  39:HW/FLASH/External_Flash/exFlash.c ****     /* ÈÖçÁΩÆSPI2 */
  40:HW/FLASH/External_Flash/exFlash.c ****     SPI_InitTypeDef spiDef;
  97              		.loc 1 40 5 view .LVU21
  41:HW/FLASH/External_Flash/exFlash.c ****     spiDef.SPI_CPHA             = SPI_CPHA_2Edge;                   // SPIÊ®°Âºè0
  98              		.loc 1 41 5 view .LVU22
  99              		.loc 1 41 33 is_stmt 0 view .LVU23
 100 0060 0126     		movs	r6, #1
 101 0062 ADF80860 		strh	r6, [sp, #8]	@ movhi
  42:HW/FLASH/External_Flash/exFlash.c ****     spiDef.SPI_CPOL             = SPI_CPOL_High;                    // SPIÊ®°Âºè0
 102              		.loc 1 42 5 is_stmt 1 view .LVU24
 103              		.loc 1 42 33 is_stmt 0 view .LVU25
 104 0066 0223     		movs	r3, #2
 105 0068 ADF80630 		strh	r3, [sp, #6]	@ movhi
  43:HW/FLASH/External_Flash/exFlash.c ****     spiDef.SPI_CRCPolynomial    = 0X7;                              // CRCÊ†°È™å‰ΩçÔºàÁî®‰∏ç‰∏äÔºâ
 106              		.loc 1 43 5 is_stmt 1 view .LVU26
 107              		.loc 1 43 33 is_stmt 0 view .LVU27
 108 006c 0723     		movs	r3, #7
 109 006e ADF81030 		strh	r3, [sp, #16]	@ movhi
  44:HW/FLASH/External_Flash/exFlash.c ****     spiDef.SPI_DataSize         = SPI_DataSize_8b;                  // Êï∞ÊçÆÂ§ßÂ∞è
 110              		.loc 1 44 5 is_stmt 1 view .LVU28
 111              		.loc 1 44 33 is_stmt 0 view .LVU29
 112 0072 0023     		movs	r3, #0
 113 0074 ADF80430 		strh	r3, [sp, #4]	@ movhi
  45:HW/FLASH/External_Flash/exFlash.c ****     spiDef.SPI_BaudRatePrescaler = SPI_BaudRatePrescaler_2;         // ‰∫åÂàÜÈ¢ëÔºàPCLK1‰∏∫36MHzÔºå
 114              		.loc 1 45 5 is_stmt 1 view .LVU30
 115              		.loc 1 45 34 is_stmt 0 view .LVU31
 116 0078 ADF80C30 		strh	r3, [sp, #12]	@ movhi
  46:HW/FLASH/External_Flash/exFlash.c ****     spiDef.SPI_Direction        = SPI_Direction_2Lines_FullDuplex;  // ÂÖ®ÂèåÂ∑•Ê®°Âºè
 117              		.loc 1 46 5 is_stmt 1 view .LVU32
 118              		.loc 1 46 33 is_stmt 0 view .LVU33
 119 007c ADF80030 		strh	r3, [sp]	@ movhi
  47:HW/FLASH/External_Flash/exFlash.c ****     spiDef.SPI_FirstBit         = SPI_FirstBit_MSB;                 // MSBÈ´ò‰ΩçÂÖàÂèëÈÄÅÊ®°ÂºèÔºàÁ
 120              		.loc 1 47 5 is_stmt 1 view .LVU34
 121              		.loc 1 47 33 is_stmt 0 view .LVU35
 122 0080 ADF80E30 		strh	r3, [sp, #14]	@ movhi
  48:HW/FLASH/External_Flash/exFlash.c ****     spiDef.SPI_Mode             = SPI_Mode_Master;                  // ‰∏ªÊú∫
 123              		.loc 1 48 5 is_stmt 1 view .LVU36
 124              		.loc 1 48 33 is_stmt 0 view .LVU37
ARM GAS  C:\Users\86157\AppData\Local\Temp\ccszuV1u.s 			page 4


 125 0084 4FF48273 		mov	r3, #260
 126 0088 ADF80230 		strh	r3, [sp, #2]	@ movhi
  49:HW/FLASH/External_Flash/exFlash.c ****     spiDef.SPI_NSS              = SPI_NSS_Soft;                     // ËΩØ‰ª∂ÊâãÂä®ÊéßÂà∂ÁâáÈÄâ‰ø°Â
 127              		.loc 1 49 5 is_stmt 1 view .LVU38
 128              		.loc 1 49 33 is_stmt 0 view .LVU39
 129 008c 4FF40073 		mov	r3, #512
 130 0090 ADF80A30 		strh	r3, [sp, #10]	@ movhi
  50:HW/FLASH/External_Flash/exFlash.c ****     SPI_Init(SPI2, &spiDef);
 131              		.loc 1 50 5 is_stmt 1 view .LVU40
 132 0094 084D     		ldr	r5, .L3+4
 133 0096 6946     		mov	r1, sp
 134 0098 2846     		mov	r0, r5
 135 009a FFF7FEFF 		bl	SPI_Init
 136              	.LVL5:
  51:HW/FLASH/External_Flash/exFlash.c ****     /* ÊãâÈ´òÁâáÈÄâ‰ø°Âè∑ */
  52:HW/FLASH/External_Flash/exFlash.c ****     Flash_EX_CS_High();
 137              		.loc 1 52 5 view .LVU41
 138 009e 3946     		mov	r1, r7
 139 00a0 2046     		mov	r0, r4
 140 00a2 FFF7FEFF 		bl	GPIO_SetBits
 141              	.LVL6:
  53:HW/FLASH/External_Flash/exFlash.c ****     /* ‰ΩøËÉΩSPI2 */
  54:HW/FLASH/External_Flash/exFlash.c ****     SPI_Cmd(SPI2, ENABLE);
 142              		.loc 1 54 5 view .LVU42
 143 00a6 3146     		mov	r1, r6
 144 00a8 2846     		mov	r0, r5
 145 00aa FFF7FEFF 		bl	SPI_Cmd
 146              	.LVL7:
  55:HW/FLASH/External_Flash/exFlash.c **** }
 147              		.loc 1 55 1 is_stmt 0 view .LVU43
 148 00ae 07B0     		add	sp, sp, #28
 149              	.LCFI2:
 150              		.cfi_def_cfa_offset 20
 151              		@ sp needed
 152 00b0 F0BD     		pop	{r4, r5, r6, r7, pc}
 153              	.L4:
 154 00b2 00BF     		.align	2
 155              	.L3:
 156 00b4 000C0140 		.word	1073810432
 157 00b8 00380040 		.word	1073756160
 158              		.cfi_endproc
 159              	.LFE32:
 161              		.section	.rodata.__Flash_EX_Byte_Impl.str1.4,"aMS",%progbits,1
 162              		.align	2
 163              	.LC0:
 164 0000 466C6167 		.ascii	"Flag error, line: %d, function: %s\015\012\000"
 164      20657272 
 164      6F722C20 
 164      6C696E65 
 164      3A202564 
 165              		.section	.text.__Flash_EX_Byte_Impl,"ax",%progbits
 166              		.align	1
 167              		.global	__Flash_EX_Byte_Impl
 168              		.syntax unified
 169              		.thumb
 170              		.thumb_func
 172              	__Flash_EX_Byte_Impl:
ARM GAS  C:\Users\86157\AppData\Local\Temp\ccszuV1u.s 			page 5


 173              	.LVL8:
 174              	.LFB33:
  56:HW/FLASH/External_Flash/exFlash.c **** 
  57:HW/FLASH/External_Flash/exFlash.c **** /* ÂºÇÂ∏∏Ê£ÄÊü• */
  58:HW/FLASH/External_Flash/exFlash.c **** typedef enum Flash_EX_Errors{
  59:HW/FLASH/External_Flash/exFlash.c ****     FLASH_EX_ERR_SUCCESS = 0, 
  60:HW/FLASH/External_Flash/exFlash.c ****     FLASH_EX_ERR_TIMEOUT, 
  61:HW/FLASH/External_Flash/exFlash.c ****     FLASH_EX_OVERFLOWED
  62:HW/FLASH/External_Flash/exFlash.c **** }Flash_EX_Errors_t;
  63:HW/FLASH/External_Flash/exFlash.c **** 
  64:HW/FLASH/External_Flash/exFlash.c **** typedef struct Flash_EX_Errors_Info{
  65:HW/FLASH/External_Flash/exFlash.c ****     const char info[20];
  66:HW/FLASH/External_Flash/exFlash.c **** } Flash_EX_Errors_Info_t;
  67:HW/FLASH/External_Flash/exFlash.c **** 
  68:HW/FLASH/External_Flash/exFlash.c **** static Flash_EX_Errors_Info_t errInfo[3] = {
  69:HW/FLASH/External_Flash/exFlash.c ****     {"success"}, 
  70:HW/FLASH/External_Flash/exFlash.c ****     {"time out"}, 
  71:HW/FLASH/External_Flash/exFlash.c ****     {"out of bounds"}
  72:HW/FLASH/External_Flash/exFlash.c **** };
  73:HW/FLASH/External_Flash/exFlash.c **** 
  74:HW/FLASH/External_Flash/exFlash.c **** #define FLASH_EX_CHECK(func){ \
  75:HW/FLASH/External_Flash/exFlash.c ****     err = func; \
  76:HW/FLASH/External_Flash/exFlash.c ****     if(err != FLASH_EX_ERR_SUCCESS){ \
  77:HW/FLASH/External_Flash/exFlash.c ****         fprintf(stderr, "Error %s, line: %d, function: %s\r\n", errInfo[err].info, __LINE__, __FUNC
  78:HW/FLASH/External_Flash/exFlash.c ****         goto FLASH_EX_ERR_FLAG; \
  79:HW/FLASH/External_Flash/exFlash.c ****     } \
  80:HW/FLASH/External_Flash/exFlash.c **** }
  81:HW/FLASH/External_Flash/exFlash.c **** 
  82:HW/FLASH/External_Flash/exFlash.c **** /* Á≠âÂæÖÁä∂ÊÄÅ */
  83:HW/FLASH/External_Flash/exFlash.c **** #define CHECK_FLAG(flag){ \
  84:HW/FLASH/External_Flash/exFlash.c ****     uint16_t timeout = 200; \
  85:HW/FLASH/External_Flash/exFlash.c ****     while(SPI_I2S_GetFlagStatus(SPI2, flag) == RESET){ \
  86:HW/FLASH/External_Flash/exFlash.c ****         if(timeout-- == 0){ \
  87:HW/FLASH/External_Flash/exFlash.c ****             err = FLASH_EX_ERR_TIMEOUT; \
  88:HW/FLASH/External_Flash/exFlash.c ****             fprintf(stderr, "Flag error, line: %d, function: %s\r\n", __LINE__, __FUNCTION__); \
  89:HW/FLASH/External_Flash/exFlash.c ****             goto FLASH_EX_ERR_FLAG; \
  90:HW/FLASH/External_Flash/exFlash.c ****         } \
  91:HW/FLASH/External_Flash/exFlash.c ****     } \
  92:HW/FLASH/External_Flash/exFlash.c **** }
  93:HW/FLASH/External_Flash/exFlash.c **** 
  94:HW/FLASH/External_Flash/exFlash.c **** /* Ë∂äÁïåÊ£ÄÊü• */
  95:HW/FLASH/External_Flash/exFlash.c **** #define CHECK_BOUND(addr){ \
  96:HW/FLASH/External_Flash/exFlash.c ****     if(addr >= FLASH_EX_SIZE){ \
  97:HW/FLASH/External_Flash/exFlash.c ****         err = FLASH_EX_OVERFLOWED; \
  98:HW/FLASH/External_Flash/exFlash.c ****         fprintf(stderr, "Error %s, line: %d, function: %s\r\n", errInfo[err].info, __LINE__, __FUNC
  99:HW/FLASH/External_Flash/exFlash.c ****         goto FLASH_EX_ERR_FLAG; \
 100:HW/FLASH/External_Flash/exFlash.c ****     } \
 101:HW/FLASH/External_Flash/exFlash.c **** }
 102:HW/FLASH/External_Flash/exFlash.c **** 
 103:HW/FLASH/External_Flash/exFlash.c **** #define DUMMY_BYTE 0XFF
 104:HW/FLASH/External_Flash/exFlash.c **** 
 105:HW/FLASH/External_Flash/exFlash.c **** Flash_EX_Errors_t __Flash_EX_Byte_Impl(uint8_t *out, uint8_t in){
 175              		.loc 1 105 65 is_stmt 1 view -0
 176              		.cfi_startproc
 177              		@ args = 0, pretend = 0, frame = 0
 178              		@ frame_needed = 0, uses_anonymous_args = 0
 179              		.loc 1 105 65 is_stmt 0 view .LVU45
ARM GAS  C:\Users\86157\AppData\Local\Temp\ccszuV1u.s 			page 6


 180 0000 70B5     		push	{r4, r5, r6, lr}
 181              	.LCFI3:
 182              		.cfi_def_cfa_offset 16
 183              		.cfi_offset 4, -16
 184              		.cfi_offset 5, -12
 185              		.cfi_offset 6, -8
 186              		.cfi_offset 14, -4
 187 0002 0546     		mov	r5, r0
 188 0004 0E46     		mov	r6, r1
 106:HW/FLASH/External_Flash/exFlash.c ****     Flash_EX_Errors_t err = 0;
 189              		.loc 1 106 5 is_stmt 1 view .LVU46
 190              	.LVL9:
 191              	.LBB2:
 107:HW/FLASH/External_Flash/exFlash.c ****     CHECK_FLAG(SPI_I2S_FLAG_TXE);
 192              		.loc 1 107 5 view .LVU47
 193              		.loc 1 107 5 view .LVU48
 194 0006 C824     		movs	r4, #200
 195              	.LVL10:
 196              	.L6:
 197              		.loc 1 107 5 discriminator 1 view .LVU49
 198 0008 0221     		movs	r1, #2
 199 000a 1948     		ldr	r0, .L18
 200 000c FFF7FEFF 		bl	SPI_I2S_GetFlagStatus
 201              	.LVL11:
 202 0010 70B9     		cbnz	r0, .L14
 203              		.loc 1 107 5 discriminator 4 view .LVU50
 204 0012 631E     		subs	r3, r4, #1
 205 0014 9BB2     		uxth	r3, r3
 206              	.LVL12:
 207              		.loc 1 107 5 is_stmt 0 discriminator 4 view .LVU51
 208 0016 0CB1     		cbz	r4, .L15
 209              		.loc 1 107 5 view .LVU52
 210 0018 1C46     		mov	r4, r3
 211 001a F5E7     		b	.L6
 212              	.L15:
 213              		.loc 1 107 5 is_stmt 1 discriminator 2 view .LVU53
 214              	.LVL13:
 215              		.loc 1 107 5 discriminator 2 view .LVU54
 216 001c 154B     		ldr	r3, .L18+4
 217              	.LVL14:
 218              		.loc 1 107 5 is_stmt 0 discriminator 2 view .LVU55
 219 001e 1868     		ldr	r0, [r3]
 220 0020 154B     		ldr	r3, .L18+8
 221 0022 6B22     		movs	r2, #107
 222 0024 1549     		ldr	r1, .L18+12
 223 0026 C068     		ldr	r0, [r0, #12]
 224 0028 FFF7FEFF 		bl	fprintf
 225              	.LVL15:
 226              		.loc 1 107 5 is_stmt 1 discriminator 2 view .LVU56
 227 002c 0120     		movs	r0, #1
 228 002e 1DE0     		b	.L7
 229              	.LVL16:
 230              	.L14:
 231              		.loc 1 107 5 is_stmt 0 discriminator 2 view .LVU57
 232              	.LBE2:
 233              		.loc 1 107 33 is_stmt 1 discriminator 5 view .LVU58
 108:HW/FLASH/External_Flash/exFlash.c ****     SPI_I2S_SendData(SPI2, (uint16_t)in);
ARM GAS  C:\Users\86157\AppData\Local\Temp\ccszuV1u.s 			page 7


 234              		.loc 1 108 5 discriminator 5 view .LVU59
 235 0030 3146     		mov	r1, r6
 236 0032 0F48     		ldr	r0, .L18
 237 0034 FFF7FEFF 		bl	SPI_I2S_SendData
 238              	.LVL17:
 239              	.LBB3:
 109:HW/FLASH/External_Flash/exFlash.c ****     CHECK_FLAG(SPI_I2S_FLAG_RXNE);
 240              		.loc 1 109 5 discriminator 5 view .LVU60
 241              		.loc 1 109 5 discriminator 5 view .LVU61
 242 0038 C824     		movs	r4, #200
 243              	.LVL18:
 244              	.L9:
 245              		.loc 1 109 5 discriminator 1 view .LVU62
 246 003a 0121     		movs	r1, #1
 247 003c 0C48     		ldr	r0, .L18
 248 003e FFF7FEFF 		bl	SPI_I2S_GetFlagStatus
 249              	.LVL19:
 250 0042 70B9     		cbnz	r0, .L16
 251              		.loc 1 109 5 discriminator 4 view .LVU63
 252 0044 631E     		subs	r3, r4, #1
 253 0046 9BB2     		uxth	r3, r3
 254              	.LVL20:
 255              		.loc 1 109 5 is_stmt 0 discriminator 4 view .LVU64
 256 0048 0CB1     		cbz	r4, .L17
 257              		.loc 1 109 5 view .LVU65
 258 004a 1C46     		mov	r4, r3
 259 004c F5E7     		b	.L9
 260              	.L17:
 261              		.loc 1 109 5 is_stmt 1 discriminator 2 view .LVU66
 262              	.LVL21:
 263              		.loc 1 109 5 discriminator 2 view .LVU67
 264 004e 094B     		ldr	r3, .L18+4
 265              	.LVL22:
 266              		.loc 1 109 5 is_stmt 0 discriminator 2 view .LVU68
 267 0050 1868     		ldr	r0, [r3]
 268 0052 094B     		ldr	r3, .L18+8
 269 0054 6D22     		movs	r2, #109
 270 0056 0949     		ldr	r1, .L18+12
 271 0058 C068     		ldr	r0, [r0, #12]
 272 005a FFF7FEFF 		bl	fprintf
 273              	.LVL23:
 274              		.loc 1 109 5 is_stmt 1 discriminator 2 view .LVU69
 275 005e 0120     		movs	r0, #1
 276 0060 04E0     		b	.L7
 277              	.LVL24:
 278              	.L16:
 279              		.loc 1 109 5 is_stmt 0 discriminator 2 view .LVU70
 280              	.LBE3:
 281              		.loc 1 109 34 is_stmt 1 discriminator 5 view .LVU71
 110:HW/FLASH/External_Flash/exFlash.c ****     *out = (uint8_t)SPI_I2S_ReceiveData(SPI2);
 282              		.loc 1 110 5 discriminator 5 view .LVU72
 283              		.loc 1 110 21 is_stmt 0 discriminator 5 view .LVU73
 284 0062 0348     		ldr	r0, .L18
 285 0064 FFF7FEFF 		bl	SPI_I2S_ReceiveData
 286              	.LVL25:
 287              		.loc 1 110 10 discriminator 5 view .LVU74
 288 0068 2870     		strb	r0, [r5]
ARM GAS  C:\Users\86157\AppData\Local\Temp\ccszuV1u.s 			page 8


 106:HW/FLASH/External_Flash/exFlash.c ****     CHECK_FLAG(SPI_I2S_FLAG_TXE);
 289              		.loc 1 106 23 discriminator 5 view .LVU75
 290 006a 0020     		movs	r0, #0
 291              	.LVL26:
 292              	.L7:
 111:HW/FLASH/External_Flash/exFlash.c **** FLASH_EX_ERR_FLAG:
 112:HW/FLASH/External_Flash/exFlash.c ****     return err;
 293              		.loc 1 112 5 is_stmt 1 view .LVU76
 113:HW/FLASH/External_Flash/exFlash.c **** }
 294              		.loc 1 113 1 is_stmt 0 view .LVU77
 295 006c 70BD     		pop	{r4, r5, r6, pc}
 296              	.LVL27:
 297              	.L19:
 298              		.loc 1 113 1 view .LVU78
 299 006e 00BF     		.align	2
 300              	.L18:
 301 0070 00380040 		.word	1073756160
 302 0074 00000000 		.word	_impure_ptr
 303 0078 00000000 		.word	__FUNCTION__.13
 304 007c 00000000 		.word	.LC0
 305              		.cfi_endproc
 306              	.LFE33:
 308              		.section	.rodata.Flash_EX_Send_Byte.str1.4,"aMS",%progbits,1
 309              		.align	2
 310              	.LC1:
 311 0000 4572726F 		.ascii	"Error %s, line: %d, function: %s\015\012\000"
 311      72202573 
 311      2C206C69 
 311      6E653A20 
 311      25642C20 
 312              		.section	.text.Flash_EX_Send_Byte,"ax",%progbits
 313              		.align	1
 314              		.global	Flash_EX_Send_Byte
 315              		.syntax unified
 316              		.thumb
 317              		.thumb_func
 319              	Flash_EX_Send_Byte:
 320              	.LVL28:
 321              	.LFB34:
 114:HW/FLASH/External_Flash/exFlash.c **** 
 115:HW/FLASH/External_Flash/exFlash.c **** Flash_EX_Errors_t Flash_EX_Send_Byte(uint8_t byte){
 322              		.loc 1 115 51 is_stmt 1 view -0
 323              		.cfi_startproc
 324              		@ args = 0, pretend = 0, frame = 8
 325              		@ frame_needed = 0, uses_anonymous_args = 0
 326              		.loc 1 115 51 is_stmt 0 view .LVU80
 327 0000 10B5     		push	{r4, lr}
 328              	.LCFI4:
 329              		.cfi_def_cfa_offset 8
 330              		.cfi_offset 4, -8
 331              		.cfi_offset 14, -4
 332 0002 84B0     		sub	sp, sp, #16
 333              	.LCFI5:
 334              		.cfi_def_cfa_offset 24
 335 0004 0146     		mov	r1, r0
 116:HW/FLASH/External_Flash/exFlash.c ****     Flash_EX_Errors_t err = 0;
 336              		.loc 1 116 5 is_stmt 1 view .LVU81
ARM GAS  C:\Users\86157\AppData\Local\Temp\ccszuV1u.s 			page 9


 337              	.LVL29:
 117:HW/FLASH/External_Flash/exFlash.c ****     uint8_t dummy = DUMMY_BYTE;
 338              		.loc 1 117 5 view .LVU82
 339              		.loc 1 117 13 is_stmt 0 view .LVU83
 340 0006 FF23     		movs	r3, #255
 341 0008 8DF80F30 		strb	r3, [sp, #15]
 118:HW/FLASH/External_Flash/exFlash.c ****     FLASH_EX_CHECK(__Flash_EX_Byte_Impl(&dummy, byte));
 342              		.loc 1 118 5 is_stmt 1 view .LVU84
 343 000c 0DF10F00 		add	r0, sp, #15
 344              	.LVL30:
 345              		.loc 1 118 5 is_stmt 0 view .LVU85
 346 0010 FFF7FEFF 		bl	__Flash_EX_Byte_Impl
 347              	.LVL31:
 348              		.loc 1 118 5 is_stmt 1 view .LVU86
 349 0014 0446     		mov	r4, r0
 350 0016 10B9     		cbnz	r0, .L23
 351              	.LVL32:
 352              	.L21:
 353              		.loc 1 118 55 discriminator 3 view .LVU87
 119:HW/FLASH/External_Flash/exFlash.c **** FLASH_EX_ERR_FLAG:
 120:HW/FLASH/External_Flash/exFlash.c ****     return err;
 354              		.loc 1 120 5 discriminator 3 view .LVU88
 121:HW/FLASH/External_Flash/exFlash.c **** }
 355              		.loc 1 121 1 is_stmt 0 discriminator 3 view .LVU89
 356 0018 2046     		mov	r0, r4
 357 001a 04B0     		add	sp, sp, #16
 358              	.LCFI6:
 359              		.cfi_remember_state
 360              		.cfi_def_cfa_offset 8
 361              		@ sp needed
 362 001c 10BD     		pop	{r4, pc}
 363              	.LVL33:
 364              	.L23:
 365              	.LCFI7:
 366              		.cfi_restore_state
 118:HW/FLASH/External_Flash/exFlash.c ****     FLASH_EX_CHECK(__Flash_EX_Byte_Impl(&dummy, byte));
 367              		.loc 1 118 5 is_stmt 1 discriminator 1 view .LVU90
 368 001e 074B     		ldr	r3, .L24
 369 0020 1B68     		ldr	r3, [r3]
 370 0022 D868     		ldr	r0, [r3, #12]
 371              	.LVL34:
 118:HW/FLASH/External_Flash/exFlash.c ****     FLASH_EX_CHECK(__Flash_EX_Byte_Impl(&dummy, byte));
 372              		.loc 1 118 5 is_stmt 0 discriminator 1 view .LVU91
 373 0024 04EB8402 		add	r2, r4, r4, lsl #2
 374 0028 054B     		ldr	r3, .L24+4
 375 002a 0093     		str	r3, [sp]
 376 002c 7623     		movs	r3, #118
 377 002e 0549     		ldr	r1, .L24+8
 378 0030 01EB8202 		add	r2, r1, r2, lsl #2
 379 0034 0449     		ldr	r1, .L24+12
 380 0036 FFF7FEFF 		bl	fprintf
 381              	.LVL35:
 118:HW/FLASH/External_Flash/exFlash.c ****     FLASH_EX_CHECK(__Flash_EX_Byte_Impl(&dummy, byte));
 382              		.loc 1 118 5 is_stmt 1 discriminator 1 view .LVU92
 383 003a EDE7     		b	.L21
 384              	.L25:
 385              		.align	2
ARM GAS  C:\Users\86157\AppData\Local\Temp\ccszuV1u.s 			page 10


 386              	.L24:
 387 003c 00000000 		.word	_impure_ptr
 388 0040 00000000 		.word	__FUNCTION__.12
 389 0044 00000000 		.word	errInfo
 390 0048 00000000 		.word	.LC1
 391              		.cfi_endproc
 392              	.LFE34:
 394              		.section	.text.Flash_EX_Recieve_Byte,"ax",%progbits
 395              		.align	1
 396              		.global	Flash_EX_Recieve_Byte
 397              		.syntax unified
 398              		.thumb
 399              		.thumb_func
 401              	Flash_EX_Recieve_Byte:
 402              	.LVL36:
 403              	.LFB35:
 122:HW/FLASH/External_Flash/exFlash.c **** 
 123:HW/FLASH/External_Flash/exFlash.c **** Flash_EX_Errors_t Flash_EX_Recieve_Byte(uint8_t* byte){
 404              		.loc 1 123 55 view -0
 405              		.cfi_startproc
 406              		@ args = 0, pretend = 0, frame = 0
 407              		@ frame_needed = 0, uses_anonymous_args = 0
 408              		.loc 1 123 55 is_stmt 0 view .LVU94
 409 0000 10B5     		push	{r4, lr}
 410              	.LCFI8:
 411              		.cfi_def_cfa_offset 8
 412              		.cfi_offset 4, -8
 413              		.cfi_offset 14, -4
 414 0002 82B0     		sub	sp, sp, #8
 415              	.LCFI9:
 416              		.cfi_def_cfa_offset 16
 124:HW/FLASH/External_Flash/exFlash.c ****     Flash_EX_Errors_t err = 0;
 417              		.loc 1 124 5 is_stmt 1 view .LVU95
 418              	.LVL37:
 125:HW/FLASH/External_Flash/exFlash.c ****     uint8_t dummy = DUMMY_BYTE;
 419              		.loc 1 125 5 view .LVU96
 126:HW/FLASH/External_Flash/exFlash.c ****     FLASH_EX_CHECK(__Flash_EX_Byte_Impl(byte, dummy));
 420              		.loc 1 126 5 view .LVU97
 421 0004 FF21     		movs	r1, #255
 422 0006 FFF7FEFF 		bl	__Flash_EX_Byte_Impl
 423              	.LVL38:
 424              		.loc 1 126 5 view .LVU98
 425 000a 0446     		mov	r4, r0
 426 000c 10B9     		cbnz	r0, .L29
 427              	.LVL39:
 428              	.L27:
 429              		.loc 1 126 54 discriminator 3 view .LVU99
 127:HW/FLASH/External_Flash/exFlash.c **** FLASH_EX_ERR_FLAG:
 128:HW/FLASH/External_Flash/exFlash.c ****     return err;
 430              		.loc 1 128 5 discriminator 3 view .LVU100
 129:HW/FLASH/External_Flash/exFlash.c **** }
 431              		.loc 1 129 1 is_stmt 0 discriminator 3 view .LVU101
 432 000e 2046     		mov	r0, r4
 433 0010 02B0     		add	sp, sp, #8
 434              	.LCFI10:
 435              		.cfi_remember_state
 436              		.cfi_def_cfa_offset 8
ARM GAS  C:\Users\86157\AppData\Local\Temp\ccszuV1u.s 			page 11


 437              		@ sp needed
 438 0012 10BD     		pop	{r4, pc}
 439              	.LVL40:
 440              	.L29:
 441              	.LCFI11:
 442              		.cfi_restore_state
 126:HW/FLASH/External_Flash/exFlash.c ****     FLASH_EX_CHECK(__Flash_EX_Byte_Impl(byte, dummy));
 443              		.loc 1 126 5 is_stmt 1 discriminator 1 view .LVU102
 444 0014 074B     		ldr	r3, .L30
 445 0016 1B68     		ldr	r3, [r3]
 446 0018 D868     		ldr	r0, [r3, #12]
 447              	.LVL41:
 126:HW/FLASH/External_Flash/exFlash.c ****     FLASH_EX_CHECK(__Flash_EX_Byte_Impl(byte, dummy));
 448              		.loc 1 126 5 is_stmt 0 discriminator 1 view .LVU103
 449 001a 04EB8402 		add	r2, r4, r4, lsl #2
 450 001e 064B     		ldr	r3, .L30+4
 451 0020 0093     		str	r3, [sp]
 452 0022 7E23     		movs	r3, #126
 453 0024 0549     		ldr	r1, .L30+8
 454 0026 01EB8202 		add	r2, r1, r2, lsl #2
 455 002a 0549     		ldr	r1, .L30+12
 456 002c FFF7FEFF 		bl	fprintf
 457              	.LVL42:
 126:HW/FLASH/External_Flash/exFlash.c ****     FLASH_EX_CHECK(__Flash_EX_Byte_Impl(byte, dummy));
 458              		.loc 1 126 5 is_stmt 1 discriminator 1 view .LVU104
 459 0030 EDE7     		b	.L27
 460              	.L31:
 461 0032 00BF     		.align	2
 462              	.L30:
 463 0034 00000000 		.word	_impure_ptr
 464 0038 00000000 		.word	__FUNCTION__.11
 465 003c 00000000 		.word	errInfo
 466 0040 00000000 		.word	.LC1
 467              		.cfi_endproc
 468              	.LFE35:
 470              		.section	.text.Flash_EX_Wake_Up,"ax",%progbits
 471              		.align	1
 472              		.global	Flash_EX_Wake_Up
 473              		.syntax unified
 474              		.thumb
 475              		.thumb_func
 477              	Flash_EX_Wake_Up:
 478              	.LFB36:
 130:HW/FLASH/External_Flash/exFlash.c **** 
 131:HW/FLASH/External_Flash/exFlash.c **** /* Âî§ÈÜíËÆæÂ§á */
 132:HW/FLASH/External_Flash/exFlash.c **** Flash_EX_Errors_t Flash_EX_Wake_Up(){
 479              		.loc 1 132 37 view -0
 480              		.cfi_startproc
 481              		@ args = 0, pretend = 0, frame = 8
 482              		@ frame_needed = 0, uses_anonymous_args = 0
 483 0000 10B5     		push	{r4, lr}
 484              	.LCFI12:
 485              		.cfi_def_cfa_offset 8
 486              		.cfi_offset 4, -8
 487              		.cfi_offset 14, -4
 488 0002 84B0     		sub	sp, sp, #16
 489              	.LCFI13:
ARM GAS  C:\Users\86157\AppData\Local\Temp\ccszuV1u.s 			page 12


 490              		.cfi_def_cfa_offset 24
 133:HW/FLASH/External_Flash/exFlash.c ****     Flash_EX_Errors_t err = 0;
 491              		.loc 1 133 5 view .LVU106
 492              	.LVL43:
 134:HW/FLASH/External_Flash/exFlash.c ****     Flash_EX_CS_Low();
 493              		.loc 1 134 5 view .LVU107
 494 0004 4FF48051 		mov	r1, #4096
 495 0008 3A48     		ldr	r0, .L45
 496 000a FFF7FEFF 		bl	GPIO_ResetBits
 497              	.LVL44:
 135:HW/FLASH/External_Flash/exFlash.c ****     FLASH_EX_CHECK(Flash_EX_Send_Byte(0XAB));
 498              		.loc 1 135 5 view .LVU108
 499 000e AB20     		movs	r0, #171
 500 0010 FFF7FEFF 		bl	Flash_EX_Send_Byte
 501              	.LVL45:
 502              		.loc 1 135 5 view .LVU109
 503 0014 00BB     		cbnz	r0, .L40
 504              		.loc 1 135 45 discriminator 2 view .LVU110
 136:HW/FLASH/External_Flash/exFlash.c ****     FLASH_EX_CHECK(Flash_EX_Send_Byte(DUMMY_BYTE));
 505              		.loc 1 136 5 discriminator 2 view .LVU111
 506 0016 FF20     		movs	r0, #255
 507              	.LVL46:
 508              		.loc 1 136 5 is_stmt 0 discriminator 2 view .LVU112
 509 0018 FFF7FEFF 		bl	Flash_EX_Send_Byte
 510              	.LVL47:
 511              		.loc 1 136 5 is_stmt 1 discriminator 2 view .LVU113
 512 001c 0446     		mov	r4, r0
 513 001e 68BB     		cbnz	r0, .L41
 514              		.loc 1 136 51 discriminator 2 view .LVU114
 137:HW/FLASH/External_Flash/exFlash.c ****     FLASH_EX_CHECK(Flash_EX_Send_Byte(DUMMY_BYTE));
 515              		.loc 1 137 5 discriminator 2 view .LVU115
 516 0020 FF20     		movs	r0, #255
 517              	.LVL48:
 518              		.loc 1 137 5 is_stmt 0 discriminator 2 view .LVU116
 519 0022 FFF7FEFF 		bl	Flash_EX_Send_Byte
 520              	.LVL49:
 521              		.loc 1 137 5 is_stmt 1 discriminator 2 view .LVU117
 522 0026 0446     		mov	r4, r0
 523 0028 0028     		cmp	r0, #0
 524 002a 36D1     		bne	.L42
 525              		.loc 1 137 51 discriminator 2 view .LVU118
 138:HW/FLASH/External_Flash/exFlash.c ****     FLASH_EX_CHECK(Flash_EX_Send_Byte(DUMMY_BYTE));
 526              		.loc 1 138 5 discriminator 2 view .LVU119
 527 002c FF20     		movs	r0, #255
 528              	.LVL50:
 529              		.loc 1 138 5 is_stmt 0 discriminator 2 view .LVU120
 530 002e FFF7FEFF 		bl	Flash_EX_Send_Byte
 531              	.LVL51:
 532              		.loc 1 138 5 is_stmt 1 discriminator 2 view .LVU121
 533 0032 0446     		mov	r4, r0
 534 0034 0028     		cmp	r0, #0
 535 0036 3FD1     		bne	.L43
 536              		.loc 1 138 51 discriminator 2 view .LVU122
 139:HW/FLASH/External_Flash/exFlash.c ****     uint8_t dummy = DUMMY_BYTE;
 537              		.loc 1 139 5 discriminator 2 view .LVU123
 538              		.loc 1 139 13 is_stmt 0 discriminator 2 view .LVU124
 539 0038 FF23     		movs	r3, #255
ARM GAS  C:\Users\86157\AppData\Local\Temp\ccszuV1u.s 			page 13


 540 003a 8DF80F30 		strb	r3, [sp, #15]
 140:HW/FLASH/External_Flash/exFlash.c ****     FLASH_EX_CHECK(Flash_EX_Recieve_Byte(&dummy));  // ÁêÜËÆ∫‰∏äËøôÈáåÂèØ‰ª•ËøîÂõûIDÔºå‰ΩÜÂÆûÈôÖ‰∏ä
 541              		.loc 1 140 5 is_stmt 1 discriminator 2 view .LVU125
 542 003e 0DF10F00 		add	r0, sp, #15
 543              	.LVL52:
 544              		.loc 1 140 5 is_stmt 0 discriminator 2 view .LVU126
 545 0042 FFF7FEFF 		bl	Flash_EX_Recieve_Byte
 546              	.LVL53:
 547              		.loc 1 140 5 is_stmt 1 discriminator 2 view .LVU127
 548 0046 0446     		mov	r4, r0
 549 0048 0028     		cmp	r0, #0
 550 004a 44D1     		bne	.L44
 551              		.loc 1 140 50 discriminator 2 view .LVU128
 141:HW/FLASH/External_Flash/exFlash.c ****     Flash_EX_CS_High();
 552              		.loc 1 141 5 discriminator 2 view .LVU129
 553 004c 4FF48051 		mov	r1, #4096
 554 0050 2848     		ldr	r0, .L45
 555              	.LVL54:
 556              		.loc 1 141 5 is_stmt 0 discriminator 2 view .LVU130
 557 0052 FFF7FEFF 		bl	GPIO_SetBits
 558              	.LVL55:
 559 0056 0EE0     		b	.L34
 560              	.LVL56:
 561              	.L40:
 562              		.loc 1 141 5 discriminator 2 view .LVU131
 563 0058 0446     		mov	r4, r0
 135:HW/FLASH/External_Flash/exFlash.c ****     FLASH_EX_CHECK(Flash_EX_Send_Byte(DUMMY_BYTE));
 564              		.loc 1 135 5 is_stmt 1 discriminator 1 view .LVU132
 565 005a 274B     		ldr	r3, .L45+4
 566 005c 1B68     		ldr	r3, [r3]
 567 005e D868     		ldr	r0, [r3, #12]
 568              	.LVL57:
 135:HW/FLASH/External_Flash/exFlash.c ****     FLASH_EX_CHECK(Flash_EX_Send_Byte(DUMMY_BYTE));
 569              		.loc 1 135 5 is_stmt 0 discriminator 1 view .LVU133
 570 0060 04EB8402 		add	r2, r4, r4, lsl #2
 571 0064 254B     		ldr	r3, .L45+8
 572 0066 0093     		str	r3, [sp]
 573 0068 8723     		movs	r3, #135
 574 006a 2549     		ldr	r1, .L45+12
 575 006c 01EB8202 		add	r2, r1, r2, lsl #2
 576 0070 2449     		ldr	r1, .L45+16
 577 0072 FFF7FEFF 		bl	fprintf
 578              	.LVL58:
 135:HW/FLASH/External_Flash/exFlash.c ****     FLASH_EX_CHECK(Flash_EX_Send_Byte(DUMMY_BYTE));
 579              		.loc 1 135 5 is_stmt 1 discriminator 1 view .LVU134
 580              	.L34:
 142:HW/FLASH/External_Flash/exFlash.c **** FLASH_EX_ERR_FLAG:
 143:HW/FLASH/External_Flash/exFlash.c ****     return err;
 581              		.loc 1 143 5 view .LVU135
 144:HW/FLASH/External_Flash/exFlash.c **** }
 582              		.loc 1 144 1 is_stmt 0 view .LVU136
 583 0076 2046     		mov	r0, r4
 584 0078 04B0     		add	sp, sp, #16
 585              	.LCFI14:
 586              		.cfi_remember_state
 587              		.cfi_def_cfa_offset 8
 588              		@ sp needed
ARM GAS  C:\Users\86157\AppData\Local\Temp\ccszuV1u.s 			page 14


 589 007a 10BD     		pop	{r4, pc}
 590              	.LVL59:
 591              	.L41:
 592              	.LCFI15:
 593              		.cfi_restore_state
 136:HW/FLASH/External_Flash/exFlash.c ****     FLASH_EX_CHECK(Flash_EX_Send_Byte(DUMMY_BYTE));
 594              		.loc 1 136 5 is_stmt 1 discriminator 1 view .LVU137
 595 007c 1E4B     		ldr	r3, .L45+4
 596 007e 1B68     		ldr	r3, [r3]
 597 0080 D868     		ldr	r0, [r3, #12]
 598              	.LVL60:
 136:HW/FLASH/External_Flash/exFlash.c ****     FLASH_EX_CHECK(Flash_EX_Send_Byte(DUMMY_BYTE));
 599              		.loc 1 136 5 is_stmt 0 discriminator 1 view .LVU138
 600 0082 04EB8402 		add	r2, r4, r4, lsl #2
 601 0086 1D4B     		ldr	r3, .L45+8
 602 0088 0093     		str	r3, [sp]
 603 008a 8823     		movs	r3, #136
 604 008c 1C49     		ldr	r1, .L45+12
 605 008e 01EB8202 		add	r2, r1, r2, lsl #2
 606 0092 1C49     		ldr	r1, .L45+16
 607 0094 FFF7FEFF 		bl	fprintf
 608              	.LVL61:
 136:HW/FLASH/External_Flash/exFlash.c ****     FLASH_EX_CHECK(Flash_EX_Send_Byte(DUMMY_BYTE));
 609              		.loc 1 136 5 is_stmt 1 discriminator 1 view .LVU139
 610 0098 EDE7     		b	.L34
 611              	.LVL62:
 612              	.L42:
 137:HW/FLASH/External_Flash/exFlash.c ****     FLASH_EX_CHECK(Flash_EX_Send_Byte(DUMMY_BYTE));
 613              		.loc 1 137 5 discriminator 1 view .LVU140
 614 009a 174B     		ldr	r3, .L45+4
 615 009c 1B68     		ldr	r3, [r3]
 616 009e D868     		ldr	r0, [r3, #12]
 617              	.LVL63:
 137:HW/FLASH/External_Flash/exFlash.c ****     FLASH_EX_CHECK(Flash_EX_Send_Byte(DUMMY_BYTE));
 618              		.loc 1 137 5 is_stmt 0 discriminator 1 view .LVU141
 619 00a0 04EB8402 		add	r2, r4, r4, lsl #2
 620 00a4 154B     		ldr	r3, .L45+8
 621 00a6 0093     		str	r3, [sp]
 622 00a8 8923     		movs	r3, #137
 623 00aa 1549     		ldr	r1, .L45+12
 624 00ac 01EB8202 		add	r2, r1, r2, lsl #2
 625 00b0 1449     		ldr	r1, .L45+16
 626 00b2 FFF7FEFF 		bl	fprintf
 627              	.LVL64:
 137:HW/FLASH/External_Flash/exFlash.c ****     FLASH_EX_CHECK(Flash_EX_Send_Byte(DUMMY_BYTE));
 628              		.loc 1 137 5 is_stmt 1 discriminator 1 view .LVU142
 629 00b6 DEE7     		b	.L34
 630              	.LVL65:
 631              	.L43:
 138:HW/FLASH/External_Flash/exFlash.c ****     uint8_t dummy = DUMMY_BYTE;
 632              		.loc 1 138 5 discriminator 1 view .LVU143
 633 00b8 0F4B     		ldr	r3, .L45+4
 634 00ba 1B68     		ldr	r3, [r3]
 635 00bc D868     		ldr	r0, [r3, #12]
 636              	.LVL66:
 138:HW/FLASH/External_Flash/exFlash.c ****     uint8_t dummy = DUMMY_BYTE;
 637              		.loc 1 138 5 is_stmt 0 discriminator 1 view .LVU144
ARM GAS  C:\Users\86157\AppData\Local\Temp\ccszuV1u.s 			page 15


 638 00be 04EB8402 		add	r2, r4, r4, lsl #2
 639 00c2 0E4B     		ldr	r3, .L45+8
 640 00c4 0093     		str	r3, [sp]
 641 00c6 8A23     		movs	r3, #138
 642 00c8 0D49     		ldr	r1, .L45+12
 643 00ca 01EB8202 		add	r2, r1, r2, lsl #2
 644 00ce 0D49     		ldr	r1, .L45+16
 645 00d0 FFF7FEFF 		bl	fprintf
 646              	.LVL67:
 138:HW/FLASH/External_Flash/exFlash.c ****     uint8_t dummy = DUMMY_BYTE;
 647              		.loc 1 138 5 is_stmt 1 discriminator 1 view .LVU145
 648 00d4 CFE7     		b	.L34
 649              	.LVL68:
 650              	.L44:
 140:HW/FLASH/External_Flash/exFlash.c ****     Flash_EX_CS_High();
 651              		.loc 1 140 5 discriminator 1 view .LVU146
 652 00d6 084B     		ldr	r3, .L45+4
 653 00d8 1B68     		ldr	r3, [r3]
 654 00da D868     		ldr	r0, [r3, #12]
 655              	.LVL69:
 140:HW/FLASH/External_Flash/exFlash.c ****     Flash_EX_CS_High();
 656              		.loc 1 140 5 is_stmt 0 discriminator 1 view .LVU147
 657 00dc 04EB8402 		add	r2, r4, r4, lsl #2
 658 00e0 064B     		ldr	r3, .L45+8
 659 00e2 0093     		str	r3, [sp]
 660 00e4 8C23     		movs	r3, #140
 661 00e6 0649     		ldr	r1, .L45+12
 662 00e8 01EB8202 		add	r2, r1, r2, lsl #2
 663 00ec 0549     		ldr	r1, .L45+16
 664 00ee FFF7FEFF 		bl	fprintf
 665              	.LVL70:
 140:HW/FLASH/External_Flash/exFlash.c ****     Flash_EX_CS_High();
 666              		.loc 1 140 5 is_stmt 1 discriminator 1 view .LVU148
 667 00f2 C0E7     		b	.L34
 668              	.L46:
 669              		.align	2
 670              	.L45:
 671 00f4 000C0140 		.word	1073810432
 672 00f8 00000000 		.word	_impure_ptr
 673 00fc 00000000 		.word	__FUNCTION__.10
 674 0100 00000000 		.word	errInfo
 675 0104 00000000 		.word	.LC1
 676              		.cfi_endproc
 677              	.LFE36:
 679              		.section	.rodata.Flash_EX_Check_JEDEC_ID.str1.4,"aMS",%progbits,1
 680              		.align	2
 681              	.LC2:
 682 0000 4A454445 		.ascii	"JEDEC verify success!\015\000"
 682      43207665 
 682      72696679 
 682      20737563 
 682      63657373 
 683 0017 00       		.align	2
 684              	.LC3:
 685 0018 4A454445 		.ascii	"JEDEC verify failed: id=%#x\015\012\000"
 685      43207665 
 685      72696679 
ARM GAS  C:\Users\86157\AppData\Local\Temp\ccszuV1u.s 			page 16


 685      20666169 
 685      6C65643A 
 686              		.section	.text.Flash_EX_Check_JEDEC_ID,"ax",%progbits
 687              		.align	1
 688              		.global	Flash_EX_Check_JEDEC_ID
 689              		.syntax unified
 690              		.thumb
 691              		.thumb_func
 693              	Flash_EX_Check_JEDEC_ID:
 694              	.LFB37:
 145:HW/FLASH/External_Flash/exFlash.c **** 
 146:HW/FLASH/External_Flash/exFlash.c **** /* ËØªÂèñÂπ∂Ê£ÄÊü• */
 147:HW/FLASH/External_Flash/exFlash.c **** Flash_EX_Errors_t Flash_EX_Check_JEDEC_ID(){
 695              		.loc 1 147 44 view -0
 696              		.cfi_startproc
 697              		@ args = 0, pretend = 0, frame = 8
 698              		@ frame_needed = 0, uses_anonymous_args = 0
 699 0000 10B5     		push	{r4, lr}
 700              	.LCFI16:
 701              		.cfi_def_cfa_offset 8
 702              		.cfi_offset 4, -8
 703              		.cfi_offset 14, -4
 704 0002 84B0     		sub	sp, sp, #16
 705              	.LCFI17:
 706              		.cfi_def_cfa_offset 24
 148:HW/FLASH/External_Flash/exFlash.c ****     Flash_EX_Errors_t err = 0;
 707              		.loc 1 148 5 view .LVU150
 708              	.LVL71:
 149:HW/FLASH/External_Flash/exFlash.c ****     Flash_EX_CS_Low();
 709              		.loc 1 149 5 view .LVU151
 710 0004 4FF48051 		mov	r1, #4096
 711 0008 3C48     		ldr	r0, .L60
 712 000a FFF7FEFF 		bl	GPIO_ResetBits
 713              	.LVL72:
 150:HW/FLASH/External_Flash/exFlash.c ****     FLASH_EX_CHECK(Flash_EX_Send_Byte(0X9F));
 714              		.loc 1 150 5 view .LVU152
 715 000e 9F20     		movs	r0, #159
 716 0010 FFF7FEFF 		bl	Flash_EX_Send_Byte
 717              	.LVL73:
 718              		.loc 1 150 5 view .LVU153
 719 0014 48BB     		cbnz	r0, .L55
 720              		.loc 1 150 45 discriminator 2 view .LVU154
 151:HW/FLASH/External_Flash/exFlash.c ****     uint8_t idPart[3];
 721              		.loc 1 151 5 discriminator 2 view .LVU155
 152:HW/FLASH/External_Flash/exFlash.c ****     FLASH_EX_CHECK(Flash_EX_Recieve_Byte(&idPart[0]));
 722              		.loc 1 152 5 discriminator 2 view .LVU156
 723 0016 03A8     		add	r0, sp, #12
 724              	.LVL74:
 725              		.loc 1 152 5 is_stmt 0 discriminator 2 view .LVU157
 726 0018 FFF7FEFF 		bl	Flash_EX_Recieve_Byte
 727              	.LVL75:
 728              		.loc 1 152 5 is_stmt 1 discriminator 2 view .LVU158
 729 001c 0446     		mov	r4, r0
 730 001e 0028     		cmp	r0, #0
 731 0020 3AD1     		bne	.L56
 732              		.loc 1 152 54 discriminator 2 view .LVU159
 153:HW/FLASH/External_Flash/exFlash.c ****     FLASH_EX_CHECK(Flash_EX_Recieve_Byte(&idPart[1]));
ARM GAS  C:\Users\86157\AppData\Local\Temp\ccszuV1u.s 			page 17


 733              		.loc 1 153 5 discriminator 2 view .LVU160
 734 0022 0DF10D00 		add	r0, sp, #13
 735              	.LVL76:
 736              		.loc 1 153 5 is_stmt 0 discriminator 2 view .LVU161
 737 0026 FFF7FEFF 		bl	Flash_EX_Recieve_Byte
 738              	.LVL77:
 739              		.loc 1 153 5 is_stmt 1 discriminator 2 view .LVU162
 740 002a 0446     		mov	r4, r0
 741 002c 0028     		cmp	r0, #0
 742 002e 42D1     		bne	.L57
 743              		.loc 1 153 54 discriminator 2 view .LVU163
 154:HW/FLASH/External_Flash/exFlash.c ****     FLASH_EX_CHECK(Flash_EX_Recieve_Byte(&idPart[2]));
 744              		.loc 1 154 5 discriminator 2 view .LVU164
 745 0030 0DF10E00 		add	r0, sp, #14
 746              	.LVL78:
 747              		.loc 1 154 5 is_stmt 0 discriminator 2 view .LVU165
 748 0034 FFF7FEFF 		bl	Flash_EX_Recieve_Byte
 749              	.LVL79:
 750              		.loc 1 154 5 is_stmt 1 discriminator 2 view .LVU166
 751 0038 0446     		mov	r4, r0
 752 003a 0028     		cmp	r0, #0
 753 003c 4AD1     		bne	.L58
 754              		.loc 1 154 54 discriminator 2 view .LVU167
 155:HW/FLASH/External_Flash/exFlash.c ****     Flash_EX_CS_High();
 755              		.loc 1 155 5 discriminator 2 view .LVU168
 756 003e 4FF48051 		mov	r1, #4096
 757 0042 2E48     		ldr	r0, .L60
 758              	.LVL80:
 759              		.loc 1 155 5 is_stmt 0 discriminator 2 view .LVU169
 760 0044 FFF7FEFF 		bl	GPIO_SetBits
 761              	.LVL81:
 156:HW/FLASH/External_Flash/exFlash.c ****     uint32_t id = ((uint32_t)idPart[0] << 16) | ((uint32_t)idPart[1] << 8) | ((uint32_t)idPart[2]);
 762              		.loc 1 156 5 is_stmt 1 discriminator 2 view .LVU170
 763              		.loc 1 156 36 is_stmt 0 discriminator 2 view .LVU171
 764 0048 9DF80C30 		ldrb	r3, [sp, #12]	@ zero_extendqisi2
 765              		.loc 1 156 66 discriminator 2 view .LVU172
 766 004c 9DF80D10 		ldrb	r1, [sp, #13]	@ zero_extendqisi2
 767              		.loc 1 156 70 discriminator 2 view .LVU173
 768 0050 0902     		lsls	r1, r1, #8
 769              		.loc 1 156 47 discriminator 2 view .LVU174
 770 0052 41EA0341 		orr	r1, r1, r3, lsl #16
 771              		.loc 1 156 95 discriminator 2 view .LVU175
 772 0056 9DF80E30 		ldrb	r3, [sp, #14]	@ zero_extendqisi2
 773              		.loc 1 156 14 discriminator 2 view .LVU176
 774 005a 1943     		orrs	r1, r1, r3
 775              	.LVL82:
 157:HW/FLASH/External_Flash/exFlash.c ****     if(id == 0X522118){
 776              		.loc 1 157 5 is_stmt 1 discriminator 2 view .LVU177
 777              		.loc 1 157 7 is_stmt 0 discriminator 2 view .LVU178
 778 005c 284B     		ldr	r3, .L60+4
 779 005e 9942     		cmp	r1, r3
 780 0060 47D0     		beq	.L59
 158:HW/FLASH/External_Flash/exFlash.c ****         printf("JEDEC verify success!\r\n");
 159:HW/FLASH/External_Flash/exFlash.c ****     }else{
 160:HW/FLASH/External_Flash/exFlash.c ****         printf("JEDEC verify failed: id=%#x\r\n", (unsigned int)id);
 781              		.loc 1 160 9 is_stmt 1 view .LVU179
 782 0062 2848     		ldr	r0, .L60+8
ARM GAS  C:\Users\86157\AppData\Local\Temp\ccszuV1u.s 			page 18


 783 0064 FFF7FEFF 		bl	printf
 784              	.LVL83:
 785              		.loc 1 160 9 is_stmt 0 view .LVU180
 786 0068 0EE0     		b	.L49
 787              	.LVL84:
 788              	.L55:
 789              		.loc 1 160 9 view .LVU181
 790 006a 0446     		mov	r4, r0
 150:HW/FLASH/External_Flash/exFlash.c ****     uint8_t idPart[3];
 791              		.loc 1 150 5 is_stmt 1 discriminator 1 view .LVU182
 792 006c 264B     		ldr	r3, .L60+12
 793 006e 1B68     		ldr	r3, [r3]
 794 0070 D868     		ldr	r0, [r3, #12]
 795              	.LVL85:
 150:HW/FLASH/External_Flash/exFlash.c ****     uint8_t idPart[3];
 796              		.loc 1 150 5 is_stmt 0 discriminator 1 view .LVU183
 797 0072 04EB8402 		add	r2, r4, r4, lsl #2
 798 0076 254B     		ldr	r3, .L60+16
 799 0078 0093     		str	r3, [sp]
 800 007a 9623     		movs	r3, #150
 801 007c 2449     		ldr	r1, .L60+20
 802 007e 01EB8202 		add	r2, r1, r2, lsl #2
 803 0082 2449     		ldr	r1, .L60+24
 804 0084 FFF7FEFF 		bl	fprintf
 805              	.LVL86:
 150:HW/FLASH/External_Flash/exFlash.c ****     uint8_t idPart[3];
 806              		.loc 1 150 5 is_stmt 1 discriminator 1 view .LVU184
 807              	.L49:
 161:HW/FLASH/External_Flash/exFlash.c ****     }
 162:HW/FLASH/External_Flash/exFlash.c **** FLASH_EX_ERR_FLAG:
 163:HW/FLASH/External_Flash/exFlash.c ****     Flash_EX_CS_High();
 808              		.loc 1 163 5 view .LVU185
 809 0088 4FF48051 		mov	r1, #4096
 810 008c 1B48     		ldr	r0, .L60
 811 008e FFF7FEFF 		bl	GPIO_SetBits
 812              	.LVL87:
 164:HW/FLASH/External_Flash/exFlash.c ****     return err;
 813              		.loc 1 164 5 view .LVU186
 165:HW/FLASH/External_Flash/exFlash.c **** }
 814              		.loc 1 165 1 is_stmt 0 view .LVU187
 815 0092 2046     		mov	r0, r4
 816 0094 04B0     		add	sp, sp, #16
 817              	.LCFI18:
 818              		.cfi_remember_state
 819              		.cfi_def_cfa_offset 8
 820              		@ sp needed
 821 0096 10BD     		pop	{r4, pc}
 822              	.LVL88:
 823              	.L56:
 824              	.LCFI19:
 825              		.cfi_restore_state
 152:HW/FLASH/External_Flash/exFlash.c ****     FLASH_EX_CHECK(Flash_EX_Recieve_Byte(&idPart[1]));
 826              		.loc 1 152 5 is_stmt 1 discriminator 1 view .LVU188
 827 0098 1B4B     		ldr	r3, .L60+12
 828 009a 1B68     		ldr	r3, [r3]
 829 009c D868     		ldr	r0, [r3, #12]
 830              	.LVL89:
ARM GAS  C:\Users\86157\AppData\Local\Temp\ccszuV1u.s 			page 19


 152:HW/FLASH/External_Flash/exFlash.c ****     FLASH_EX_CHECK(Flash_EX_Recieve_Byte(&idPart[1]));
 831              		.loc 1 152 5 is_stmt 0 discriminator 1 view .LVU189
 832 009e 04EB8402 		add	r2, r4, r4, lsl #2
 833 00a2 1A4B     		ldr	r3, .L60+16
 834 00a4 0093     		str	r3, [sp]
 835 00a6 9823     		movs	r3, #152
 836 00a8 1949     		ldr	r1, .L60+20
 837 00aa 01EB8202 		add	r2, r1, r2, lsl #2
 838 00ae 1949     		ldr	r1, .L60+24
 839 00b0 FFF7FEFF 		bl	fprintf
 840              	.LVL90:
 152:HW/FLASH/External_Flash/exFlash.c ****     FLASH_EX_CHECK(Flash_EX_Recieve_Byte(&idPart[1]));
 841              		.loc 1 152 5 is_stmt 1 discriminator 1 view .LVU190
 842 00b4 E8E7     		b	.L49
 843              	.LVL91:
 844              	.L57:
 153:HW/FLASH/External_Flash/exFlash.c ****     FLASH_EX_CHECK(Flash_EX_Recieve_Byte(&idPart[2]));
 845              		.loc 1 153 5 discriminator 1 view .LVU191
 846 00b6 144B     		ldr	r3, .L60+12
 847 00b8 1B68     		ldr	r3, [r3]
 848 00ba D868     		ldr	r0, [r3, #12]
 849              	.LVL92:
 153:HW/FLASH/External_Flash/exFlash.c ****     FLASH_EX_CHECK(Flash_EX_Recieve_Byte(&idPart[2]));
 850              		.loc 1 153 5 is_stmt 0 discriminator 1 view .LVU192
 851 00bc 04EB8402 		add	r2, r4, r4, lsl #2
 852 00c0 124B     		ldr	r3, .L60+16
 853 00c2 0093     		str	r3, [sp]
 854 00c4 9923     		movs	r3, #153
 855 00c6 1249     		ldr	r1, .L60+20
 856 00c8 01EB8202 		add	r2, r1, r2, lsl #2
 857 00cc 1149     		ldr	r1, .L60+24
 858 00ce FFF7FEFF 		bl	fprintf
 859              	.LVL93:
 153:HW/FLASH/External_Flash/exFlash.c ****     FLASH_EX_CHECK(Flash_EX_Recieve_Byte(&idPart[2]));
 860              		.loc 1 153 5 is_stmt 1 discriminator 1 view .LVU193
 861 00d2 D9E7     		b	.L49
 862              	.LVL94:
 863              	.L58:
 154:HW/FLASH/External_Flash/exFlash.c ****     Flash_EX_CS_High();
 864              		.loc 1 154 5 discriminator 1 view .LVU194
 865 00d4 0C4B     		ldr	r3, .L60+12
 866 00d6 1B68     		ldr	r3, [r3]
 867 00d8 D868     		ldr	r0, [r3, #12]
 868              	.LVL95:
 154:HW/FLASH/External_Flash/exFlash.c ****     Flash_EX_CS_High();
 869              		.loc 1 154 5 is_stmt 0 discriminator 1 view .LVU195
 870 00da 04EB8402 		add	r2, r4, r4, lsl #2
 871 00de 0B4B     		ldr	r3, .L60+16
 872 00e0 0093     		str	r3, [sp]
 873 00e2 9A23     		movs	r3, #154
 874 00e4 0A49     		ldr	r1, .L60+20
 875 00e6 01EB8202 		add	r2, r1, r2, lsl #2
 876 00ea 0A49     		ldr	r1, .L60+24
 877 00ec FFF7FEFF 		bl	fprintf
 878              	.LVL96:
 154:HW/FLASH/External_Flash/exFlash.c ****     Flash_EX_CS_High();
 879              		.loc 1 154 5 is_stmt 1 discriminator 1 view .LVU196
ARM GAS  C:\Users\86157\AppData\Local\Temp\ccszuV1u.s 			page 20


 880 00f0 CAE7     		b	.L49
 881              	.LVL97:
 882              	.L59:
 158:HW/FLASH/External_Flash/exFlash.c ****     }else{
 883              		.loc 1 158 9 view .LVU197
 884 00f2 0948     		ldr	r0, .L60+28
 885 00f4 FFF7FEFF 		bl	puts
 886              	.LVL98:
 158:HW/FLASH/External_Flash/exFlash.c ****     }else{
 887              		.loc 1 158 9 is_stmt 0 view .LVU198
 888 00f8 C6E7     		b	.L49
 889              	.L61:
 890 00fa 00BF     		.align	2
 891              	.L60:
 892 00fc 000C0140 		.word	1073810432
 893 0100 18215200 		.word	5382424
 894 0104 18000000 		.word	.LC3
 895 0108 00000000 		.word	_impure_ptr
 896 010c 00000000 		.word	__FUNCTION__.9
 897 0110 00000000 		.word	errInfo
 898 0114 00000000 		.word	.LC1
 899 0118 00000000 		.word	.LC2
 900              		.cfi_endproc
 901              	.LFE37:
 903              		.section	.text.Flash_EX_Write_Enable,"ax",%progbits
 904              		.align	1
 905              		.global	Flash_EX_Write_Enable
 906              		.syntax unified
 907              		.thumb
 908              		.thumb_func
 910              	Flash_EX_Write_Enable:
 911              	.LFB38:
 166:HW/FLASH/External_Flash/exFlash.c **** 
 167:HW/FLASH/External_Flash/exFlash.c **** /* ÂÜô‰ΩøËÉΩ */
 168:HW/FLASH/External_Flash/exFlash.c **** Flash_EX_Errors_t Flash_EX_Write_Enable(){
 912              		.loc 1 168 42 is_stmt 1 view -0
 913              		.cfi_startproc
 914              		@ args = 0, pretend = 0, frame = 0
 915              		@ frame_needed = 0, uses_anonymous_args = 0
 916 0000 10B5     		push	{r4, lr}
 917              	.LCFI20:
 918              		.cfi_def_cfa_offset 8
 919              		.cfi_offset 4, -8
 920              		.cfi_offset 14, -4
 921 0002 82B0     		sub	sp, sp, #8
 922              	.LCFI21:
 923              		.cfi_def_cfa_offset 16
 169:HW/FLASH/External_Flash/exFlash.c ****     Flash_EX_Errors_t err = 0;
 924              		.loc 1 169 5 view .LVU200
 925              	.LVL99:
 170:HW/FLASH/External_Flash/exFlash.c ****     Flash_EX_CS_Low();
 926              		.loc 1 170 5 view .LVU201
 927 0004 4FF48051 		mov	r1, #4096
 928 0008 0F48     		ldr	r0, .L66
 929 000a FFF7FEFF 		bl	GPIO_ResetBits
 930              	.LVL100:
 171:HW/FLASH/External_Flash/exFlash.c ****     FLASH_EX_CHECK(Flash_EX_Send_Byte(0X06));
ARM GAS  C:\Users\86157\AppData\Local\Temp\ccszuV1u.s 			page 21


 931              		.loc 1 171 5 view .LVU202
 932 000e 0620     		movs	r0, #6
 933 0010 FFF7FEFF 		bl	Flash_EX_Send_Byte
 934              	.LVL101:
 935              		.loc 1 171 5 view .LVU203
 936 0014 0446     		mov	r4, r0
 937 0016 38B9     		cbnz	r0, .L65
 938              	.LVL102:
 939              	.L63:
 940              		.loc 1 171 45 discriminator 3 view .LVU204
 172:HW/FLASH/External_Flash/exFlash.c **** FLASH_EX_ERR_FLAG:
 173:HW/FLASH/External_Flash/exFlash.c ****     Flash_EX_CS_High();
 941              		.loc 1 173 5 discriminator 3 view .LVU205
 942 0018 4FF48051 		mov	r1, #4096
 943 001c 0A48     		ldr	r0, .L66
 944 001e FFF7FEFF 		bl	GPIO_SetBits
 945              	.LVL103:
 174:HW/FLASH/External_Flash/exFlash.c ****     return err;
 946              		.loc 1 174 5 discriminator 3 view .LVU206
 175:HW/FLASH/External_Flash/exFlash.c **** }
 947              		.loc 1 175 1 is_stmt 0 discriminator 3 view .LVU207
 948 0022 2046     		mov	r0, r4
 949 0024 02B0     		add	sp, sp, #8
 950              	.LCFI22:
 951              		.cfi_remember_state
 952              		.cfi_def_cfa_offset 8
 953              		@ sp needed
 954 0026 10BD     		pop	{r4, pc}
 955              	.LVL104:
 956              	.L65:
 957              	.LCFI23:
 958              		.cfi_restore_state
 171:HW/FLASH/External_Flash/exFlash.c **** FLASH_EX_ERR_FLAG:
 959              		.loc 1 171 5 is_stmt 1 discriminator 1 view .LVU208
 960 0028 084B     		ldr	r3, .L66+4
 961 002a 1B68     		ldr	r3, [r3]
 962 002c D868     		ldr	r0, [r3, #12]
 963              	.LVL105:
 171:HW/FLASH/External_Flash/exFlash.c **** FLASH_EX_ERR_FLAG:
 964              		.loc 1 171 5 is_stmt 0 discriminator 1 view .LVU209
 965 002e 04EB8402 		add	r2, r4, r4, lsl #2
 966 0032 074B     		ldr	r3, .L66+8
 967 0034 0093     		str	r3, [sp]
 968 0036 AB23     		movs	r3, #171
 969 0038 0649     		ldr	r1, .L66+12
 970 003a 01EB8202 		add	r2, r1, r2, lsl #2
 971 003e 0649     		ldr	r1, .L66+16
 972 0040 FFF7FEFF 		bl	fprintf
 973              	.LVL106:
 171:HW/FLASH/External_Flash/exFlash.c **** FLASH_EX_ERR_FLAG:
 974              		.loc 1 171 5 is_stmt 1 discriminator 1 view .LVU210
 975 0044 E8E7     		b	.L63
 976              	.L67:
 977 0046 00BF     		.align	2
 978              	.L66:
 979 0048 000C0140 		.word	1073810432
 980 004c 00000000 		.word	_impure_ptr
ARM GAS  C:\Users\86157\AppData\Local\Temp\ccszuV1u.s 			page 22


 981 0050 00000000 		.word	__FUNCTION__.8
 982 0054 00000000 		.word	errInfo
 983 0058 00000000 		.word	.LC1
 984              		.cfi_endproc
 985              	.LFE38:
 987              		.section	.text.Flash_EX_Write_Disable,"ax",%progbits
 988              		.align	1
 989              		.global	Flash_EX_Write_Disable
 990              		.syntax unified
 991              		.thumb
 992              		.thumb_func
 994              	Flash_EX_Write_Disable:
 995              	.LFB39:
 176:HW/FLASH/External_Flash/exFlash.c **** 
 177:HW/FLASH/External_Flash/exFlash.c **** /* ÂÜôÂÖ≥Èó≠ */
 178:HW/FLASH/External_Flash/exFlash.c **** Flash_EX_Errors_t Flash_EX_Write_Disable(){
 996              		.loc 1 178 43 view -0
 997              		.cfi_startproc
 998              		@ args = 0, pretend = 0, frame = 0
 999              		@ frame_needed = 0, uses_anonymous_args = 0
 1000 0000 10B5     		push	{r4, lr}
 1001              	.LCFI24:
 1002              		.cfi_def_cfa_offset 8
 1003              		.cfi_offset 4, -8
 1004              		.cfi_offset 14, -4
 1005 0002 82B0     		sub	sp, sp, #8
 1006              	.LCFI25:
 1007              		.cfi_def_cfa_offset 16
 179:HW/FLASH/External_Flash/exFlash.c ****     Flash_EX_Errors_t err = 0;
 1008              		.loc 1 179 5 view .LVU212
 1009              	.LVL107:
 180:HW/FLASH/External_Flash/exFlash.c ****     Flash_EX_CS_Low();
 1010              		.loc 1 180 5 view .LVU213
 1011 0004 4FF48051 		mov	r1, #4096
 1012 0008 0F48     		ldr	r0, .L72
 1013 000a FFF7FEFF 		bl	GPIO_ResetBits
 1014              	.LVL108:
 181:HW/FLASH/External_Flash/exFlash.c ****     FLASH_EX_CHECK(Flash_EX_Send_Byte(0X04));
 1015              		.loc 1 181 5 view .LVU214
 1016 000e 0420     		movs	r0, #4
 1017 0010 FFF7FEFF 		bl	Flash_EX_Send_Byte
 1018              	.LVL109:
 1019              		.loc 1 181 5 view .LVU215
 1020 0014 0446     		mov	r4, r0
 1021 0016 38B9     		cbnz	r0, .L71
 1022              	.LVL110:
 1023              	.L69:
 1024              		.loc 1 181 45 discriminator 3 view .LVU216
 182:HW/FLASH/External_Flash/exFlash.c **** FLASH_EX_ERR_FLAG:
 183:HW/FLASH/External_Flash/exFlash.c ****     Flash_EX_CS_High();
 1025              		.loc 1 183 5 discriminator 3 view .LVU217
 1026 0018 4FF48051 		mov	r1, #4096
 1027 001c 0A48     		ldr	r0, .L72
 1028 001e FFF7FEFF 		bl	GPIO_SetBits
 1029              	.LVL111:
 184:HW/FLASH/External_Flash/exFlash.c ****     return err;
 1030              		.loc 1 184 5 discriminator 3 view .LVU218
ARM GAS  C:\Users\86157\AppData\Local\Temp\ccszuV1u.s 			page 23


 185:HW/FLASH/External_Flash/exFlash.c **** }
 1031              		.loc 1 185 1 is_stmt 0 discriminator 3 view .LVU219
 1032 0022 2046     		mov	r0, r4
 1033 0024 02B0     		add	sp, sp, #8
 1034              	.LCFI26:
 1035              		.cfi_remember_state
 1036              		.cfi_def_cfa_offset 8
 1037              		@ sp needed
 1038 0026 10BD     		pop	{r4, pc}
 1039              	.LVL112:
 1040              	.L71:
 1041              	.LCFI27:
 1042              		.cfi_restore_state
 181:HW/FLASH/External_Flash/exFlash.c **** FLASH_EX_ERR_FLAG:
 1043              		.loc 1 181 5 is_stmt 1 discriminator 1 view .LVU220
 1044 0028 084B     		ldr	r3, .L72+4
 1045 002a 1B68     		ldr	r3, [r3]
 1046 002c D868     		ldr	r0, [r3, #12]
 1047              	.LVL113:
 181:HW/FLASH/External_Flash/exFlash.c **** FLASH_EX_ERR_FLAG:
 1048              		.loc 1 181 5 is_stmt 0 discriminator 1 view .LVU221
 1049 002e 04EB8402 		add	r2, r4, r4, lsl #2
 1050 0032 074B     		ldr	r3, .L72+8
 1051 0034 0093     		str	r3, [sp]
 1052 0036 B523     		movs	r3, #181
 1053 0038 0649     		ldr	r1, .L72+12
 1054 003a 01EB8202 		add	r2, r1, r2, lsl #2
 1055 003e 0649     		ldr	r1, .L72+16
 1056 0040 FFF7FEFF 		bl	fprintf
 1057              	.LVL114:
 181:HW/FLASH/External_Flash/exFlash.c **** FLASH_EX_ERR_FLAG:
 1058              		.loc 1 181 5 is_stmt 1 discriminator 1 view .LVU222
 1059 0044 E8E7     		b	.L69
 1060              	.L73:
 1061 0046 00BF     		.align	2
 1062              	.L72:
 1063 0048 000C0140 		.word	1073810432
 1064 004c 00000000 		.word	_impure_ptr
 1065 0050 00000000 		.word	__FUNCTION__.7
 1066 0054 00000000 		.word	errInfo
 1067 0058 00000000 		.word	.LC1
 1068              		.cfi_endproc
 1069              	.LFE39:
 1071              		.section	.text.Flash_EX_Read_SR,"ax",%progbits
 1072              		.align	1
 1073              		.global	Flash_EX_Read_SR
 1074              		.syntax unified
 1075              		.thumb
 1076              		.thumb_func
 1078              	Flash_EX_Read_SR:
 1079              	.LVL115:
 1080              	.LFB40:
 186:HW/FLASH/External_Flash/exFlash.c **** 
 187:HW/FLASH/External_Flash/exFlash.c **** /* ËØªÂèñÁä∂ÊÄÅÂØÑÂ≠òÂô® */
 188:HW/FLASH/External_Flash/exFlash.c **** Flash_EX_Errors_t Flash_EX_Read_SR(uint8_t* reg){
 1081              		.loc 1 188 49 view -0
 1082              		.cfi_startproc
ARM GAS  C:\Users\86157\AppData\Local\Temp\ccszuV1u.s 			page 24


 1083              		@ args = 0, pretend = 0, frame = 0
 1084              		@ frame_needed = 0, uses_anonymous_args = 0
 1085              		.loc 1 188 49 is_stmt 0 view .LVU224
 1086 0000 30B5     		push	{r4, r5, lr}
 1087              	.LCFI28:
 1088              		.cfi_def_cfa_offset 12
 1089              		.cfi_offset 4, -12
 1090              		.cfi_offset 5, -8
 1091              		.cfi_offset 14, -4
 1092 0002 83B0     		sub	sp, sp, #12
 1093              	.LCFI29:
 1094              		.cfi_def_cfa_offset 24
 1095 0004 0446     		mov	r4, r0
 189:HW/FLASH/External_Flash/exFlash.c ****     Flash_EX_Errors_t err = 0;
 1096              		.loc 1 189 5 is_stmt 1 view .LVU225
 1097              	.LVL116:
 190:HW/FLASH/External_Flash/exFlash.c ****     Flash_EX_CS_Low();
 1098              		.loc 1 190 5 view .LVU226
 1099 0006 4FF48051 		mov	r1, #4096
 1100 000a 1948     		ldr	r0, .L80
 1101              	.LVL117:
 1102              		.loc 1 190 5 is_stmt 0 view .LVU227
 1103 000c FFF7FEFF 		bl	GPIO_ResetBits
 1104              	.LVL118:
 191:HW/FLASH/External_Flash/exFlash.c ****     FLASH_EX_CHECK(Flash_EX_Send_Byte(0X05));
 1105              		.loc 1 191 5 is_stmt 1 view .LVU228
 1106 0010 0520     		movs	r0, #5
 1107 0012 FFF7FEFF 		bl	Flash_EX_Send_Byte
 1108              	.LVL119:
 1109              		.loc 1 191 5 view .LVU229
 1110 0016 60B9     		cbnz	r0, .L78
 1111              		.loc 1 191 45 discriminator 2 view .LVU230
 192:HW/FLASH/External_Flash/exFlash.c ****     FLASH_EX_CHECK(Flash_EX_Recieve_Byte(reg));
 1112              		.loc 1 192 5 discriminator 2 view .LVU231
 1113 0018 2046     		mov	r0, r4
 1114              	.LVL120:
 1115              		.loc 1 192 5 is_stmt 0 discriminator 2 view .LVU232
 1116 001a FFF7FEFF 		bl	Flash_EX_Recieve_Byte
 1117              	.LVL121:
 1118              		.loc 1 192 5 is_stmt 1 discriminator 2 view .LVU233
 1119 001e 0546     		mov	r5, r0
 1120 0020 B8B9     		cbnz	r0, .L79
 1121              	.LVL122:
 1122              	.L76:
 1123              		.loc 1 192 47 discriminator 3 view .LVU234
 193:HW/FLASH/External_Flash/exFlash.c **** FLASH_EX_ERR_FLAG:
 194:HW/FLASH/External_Flash/exFlash.c ****     Flash_EX_CS_High();
 1124              		.loc 1 194 5 discriminator 3 view .LVU235
 1125 0022 4FF48051 		mov	r1, #4096
 1126 0026 1248     		ldr	r0, .L80
 1127 0028 FFF7FEFF 		bl	GPIO_SetBits
 1128              	.LVL123:
 195:HW/FLASH/External_Flash/exFlash.c ****     return err;
 1129              		.loc 1 195 5 discriminator 3 view .LVU236
 196:HW/FLASH/External_Flash/exFlash.c **** }
 1130              		.loc 1 196 1 is_stmt 0 discriminator 3 view .LVU237
 1131 002c 2846     		mov	r0, r5
ARM GAS  C:\Users\86157\AppData\Local\Temp\ccszuV1u.s 			page 25


 1132 002e 03B0     		add	sp, sp, #12
 1133              	.LCFI30:
 1134              		.cfi_remember_state
 1135              		.cfi_def_cfa_offset 12
 1136              		@ sp needed
 1137 0030 30BD     		pop	{r4, r5, pc}
 1138              	.LVL124:
 1139              	.L78:
 1140              	.LCFI31:
 1141              		.cfi_restore_state
 1142              		.loc 1 196 1 discriminator 3 view .LVU238
 1143 0032 0546     		mov	r5, r0
 191:HW/FLASH/External_Flash/exFlash.c ****     FLASH_EX_CHECK(Flash_EX_Recieve_Byte(reg));
 1144              		.loc 1 191 5 is_stmt 1 discriminator 1 view .LVU239
 1145 0034 0F4B     		ldr	r3, .L80+4
 1146 0036 1B68     		ldr	r3, [r3]
 1147 0038 D868     		ldr	r0, [r3, #12]
 1148              	.LVL125:
 191:HW/FLASH/External_Flash/exFlash.c ****     FLASH_EX_CHECK(Flash_EX_Recieve_Byte(reg));
 1149              		.loc 1 191 5 is_stmt 0 discriminator 1 view .LVU240
 1150 003a 05EB8502 		add	r2, r5, r5, lsl #2
 1151 003e 0E4B     		ldr	r3, .L80+8
 1152 0040 0093     		str	r3, [sp]
 1153 0042 BF23     		movs	r3, #191
 1154 0044 0D49     		ldr	r1, .L80+12
 1155 0046 01EB8202 		add	r2, r1, r2, lsl #2
 1156 004a 0D49     		ldr	r1, .L80+16
 1157 004c FFF7FEFF 		bl	fprintf
 1158              	.LVL126:
 191:HW/FLASH/External_Flash/exFlash.c ****     FLASH_EX_CHECK(Flash_EX_Recieve_Byte(reg));
 1159              		.loc 1 191 5 is_stmt 1 discriminator 1 view .LVU241
 1160 0050 E7E7     		b	.L76
 1161              	.LVL127:
 1162              	.L79:
 192:HW/FLASH/External_Flash/exFlash.c **** FLASH_EX_ERR_FLAG:
 1163              		.loc 1 192 5 discriminator 1 view .LVU242
 1164 0052 084B     		ldr	r3, .L80+4
 1165 0054 1B68     		ldr	r3, [r3]
 1166 0056 D868     		ldr	r0, [r3, #12]
 1167              	.LVL128:
 192:HW/FLASH/External_Flash/exFlash.c **** FLASH_EX_ERR_FLAG:
 1168              		.loc 1 192 5 is_stmt 0 discriminator 1 view .LVU243
 1169 0058 05EB8502 		add	r2, r5, r5, lsl #2
 1170 005c 064B     		ldr	r3, .L80+8
 1171 005e 0093     		str	r3, [sp]
 1172 0060 C023     		movs	r3, #192
 1173 0062 0649     		ldr	r1, .L80+12
 1174 0064 01EB8202 		add	r2, r1, r2, lsl #2
 1175 0068 0549     		ldr	r1, .L80+16
 1176 006a FFF7FEFF 		bl	fprintf
 1177              	.LVL129:
 192:HW/FLASH/External_Flash/exFlash.c **** FLASH_EX_ERR_FLAG:
 1178              		.loc 1 192 5 is_stmt 1 discriminator 1 view .LVU244
 1179 006e D8E7     		b	.L76
 1180              	.L81:
 1181              		.align	2
 1182              	.L80:
ARM GAS  C:\Users\86157\AppData\Local\Temp\ccszuV1u.s 			page 26


 1183 0070 000C0140 		.word	1073810432
 1184 0074 00000000 		.word	_impure_ptr
 1185 0078 00000000 		.word	__FUNCTION__.6
 1186 007c 00000000 		.word	errInfo
 1187 0080 00000000 		.word	.LC1
 1188              		.cfi_endproc
 1189              	.LFE40:
 1191              		.section	.text.Flash_EX_Synchronize,"ax",%progbits
 1192              		.align	1
 1193              		.global	Flash_EX_Synchronize
 1194              		.syntax unified
 1195              		.thumb
 1196              		.thumb_func
 1198              	Flash_EX_Synchronize:
 1199              	.LFB41:
 197:HW/FLASH/External_Flash/exFlash.c **** 
 198:HW/FLASH/External_Flash/exFlash.c **** /* Á≠âÂæÖBUSYÁä∂ÊÄÅ */
 199:HW/FLASH/External_Flash/exFlash.c **** Flash_EX_Errors_t Flash_EX_Synchronize(){
 1200              		.loc 1 199 41 view -0
 1201              		.cfi_startproc
 1202              		@ args = 0, pretend = 0, frame = 8
 1203              		@ frame_needed = 0, uses_anonymous_args = 0
 1204 0000 00B5     		push	{lr}
 1205              	.LCFI32:
 1206              		.cfi_def_cfa_offset 4
 1207              		.cfi_offset 14, -4
 1208 0002 83B0     		sub	sp, sp, #12
 1209              	.LCFI33:
 1210              		.cfi_def_cfa_offset 16
 1211 0004 02E0     		b	.L84
 1212              	.L86:
 200:HW/FLASH/External_Flash/exFlash.c ****     uint8_t buffer;
 201:HW/FLASH/External_Flash/exFlash.c ****     while(1){
 202:HW/FLASH/External_Flash/exFlash.c ****         Flash_EX_Read_SR(&buffer);
 203:HW/FLASH/External_Flash/exFlash.c ****         if(buffer & 0X01) delay_us(5);
 1213              		.loc 1 203 27 discriminator 1 view .LVU246
 1214 0006 0520     		movs	r0, #5
 1215 0008 FFF7FEFF 		bl	delay_us
 1216              	.LVL130:
 201:HW/FLASH/External_Flash/exFlash.c ****         Flash_EX_Read_SR(&buffer);
 1217              		.loc 1 201 10 discriminator 1 view .LVU247
 1218              	.L84:
 200:HW/FLASH/External_Flash/exFlash.c ****     uint8_t buffer;
 1219              		.loc 1 200 5 discriminator 2 view .LVU248
 201:HW/FLASH/External_Flash/exFlash.c ****         Flash_EX_Read_SR(&buffer);
 1220              		.loc 1 201 5 discriminator 2 view .LVU249
 202:HW/FLASH/External_Flash/exFlash.c ****         if(buffer & 0X01) delay_us(5);
 1221              		.loc 1 202 9 discriminator 2 view .LVU250
 1222 000c 0DF10700 		add	r0, sp, #7
 1223 0010 FFF7FEFF 		bl	Flash_EX_Read_SR
 1224              	.LVL131:
 1225              		.loc 1 203 9 discriminator 2 view .LVU251
 1226              		.loc 1 203 19 is_stmt 0 discriminator 2 view .LVU252
 1227 0014 9DF80730 		ldrb	r3, [sp, #7]	@ zero_extendqisi2
 1228              		.loc 1 203 11 discriminator 2 view .LVU253
 1229 0018 13F0010F 		tst	r3, #1
 1230 001c F3D1     		bne	.L86
ARM GAS  C:\Users\86157\AppData\Local\Temp\ccszuV1u.s 			page 27


 204:HW/FLASH/External_Flash/exFlash.c ****         else break;
 205:HW/FLASH/External_Flash/exFlash.c ****     }  // Ê£ÄÊµãBUSYÊ†áÂøó
 206:HW/FLASH/External_Flash/exFlash.c ****     return 0;
 1231              		.loc 1 206 5 is_stmt 1 view .LVU254
 207:HW/FLASH/External_Flash/exFlash.c **** }
 1232              		.loc 1 207 1 is_stmt 0 view .LVU255
 1233 001e 0020     		movs	r0, #0
 1234 0020 03B0     		add	sp, sp, #12
 1235              	.LCFI34:
 1236              		.cfi_def_cfa_offset 4
 1237              		@ sp needed
 1238 0022 5DF804FB 		ldr	pc, [sp], #4
 1239              		.cfi_endproc
 1240              	.LFE41:
 1242              		.section	.text.Flash_EX_Erase_Sector,"ax",%progbits
 1243              		.align	1
 1244              		.global	Flash_EX_Erase_Sector
 1245              		.syntax unified
 1246              		.thumb
 1247              		.thumb_func
 1249              	Flash_EX_Erase_Sector:
 1250              	.LVL132:
 1251              	.LFB42:
 208:HW/FLASH/External_Flash/exFlash.c **** 
 209:HW/FLASH/External_Flash/exFlash.c **** /* Êì¶Èô§1Sector(4K) */
 210:HW/FLASH/External_Flash/exFlash.c **** Flash_EX_Errors_t Flash_EX_Erase_Sector(uint32_t addr){
 1252              		.loc 1 210 55 is_stmt 1 view -0
 1253              		.cfi_startproc
 1254              		@ args = 0, pretend = 0, frame = 0
 1255              		@ frame_needed = 0, uses_anonymous_args = 0
 1256              		.loc 1 210 55 is_stmt 0 view .LVU257
 1257 0000 30B5     		push	{r4, r5, lr}
 1258              	.LCFI35:
 1259              		.cfi_def_cfa_offset 12
 1260              		.cfi_offset 4, -12
 1261              		.cfi_offset 5, -8
 1262              		.cfi_offset 14, -4
 1263 0002 83B0     		sub	sp, sp, #12
 1264              	.LCFI36:
 1265              		.cfi_def_cfa_offset 24
 211:HW/FLASH/External_Flash/exFlash.c ****     Flash_EX_Errors_t err = 0;
 1266              		.loc 1 211 5 is_stmt 1 view .LVU258
 1267              	.LVL133:
 212:HW/FLASH/External_Flash/exFlash.c ****     /* Âà§Êñ≠ÊòØÂê¶Ë∂äÁïå */
 213:HW/FLASH/External_Flash/exFlash.c ****     CHECK_BOUND(addr);
 1268              		.loc 1 213 5 view .LVU259
 1269 0004 B0F1006F 		cmp	r0, #134217728
 1270 0008 48D2     		bcs	.L98
 1271 000a 0546     		mov	r5, r0
 1272              		.loc 1 213 22 discriminator 2 view .LVU260
 214:HW/FLASH/External_Flash/exFlash.c **** 
 215:HW/FLASH/External_Flash/exFlash.c ****     /* Êì¶Èô§ */
 216:HW/FLASH/External_Flash/exFlash.c ****     FLASH_EX_CHECK(Flash_EX_Synchronize(10000));
 1273              		.loc 1 216 5 discriminator 2 view .LVU261
 1274 000c 42F21070 		movw	r0, #10000
 1275              	.LVL134:
 1276              		.loc 1 216 5 is_stmt 0 discriminator 2 view .LVU262
ARM GAS  C:\Users\86157\AppData\Local\Temp\ccszuV1u.s 			page 28


 1277 0010 FFF7FEFF 		bl	Flash_EX_Synchronize
 1278              	.LVL135:
 1279              		.loc 1 216 5 is_stmt 1 discriminator 2 view .LVU263
 1280 0014 0446     		mov	r4, r0
 1281 0016 0028     		cmp	r0, #0
 1282 0018 4CD1     		bne	.L99
 1283              		.loc 1 216 48 discriminator 2 view .LVU264
 217:HW/FLASH/External_Flash/exFlash.c ****     FLASH_EX_CHECK(Flash_EX_Write_Enable());
 1284              		.loc 1 217 5 discriminator 2 view .LVU265
 1285 001a FFF7FEFF 		bl	Flash_EX_Write_Enable
 1286              	.LVL136:
 1287              		.loc 1 217 5 discriminator 2 view .LVU266
 1288 001e 0446     		mov	r4, r0
 1289 0020 0028     		cmp	r0, #0
 1290 0022 5DD1     		bne	.L100
 1291              		.loc 1 217 44 discriminator 2 view .LVU267
 218:HW/FLASH/External_Flash/exFlash.c ****     Flash_EX_CS_Low();
 1292              		.loc 1 218 5 discriminator 2 view .LVU268
 1293 0024 4FF48051 		mov	r1, #4096
 1294 0028 5A48     		ldr	r0, .L106
 1295              	.LVL137:
 1296              		.loc 1 218 5 is_stmt 0 discriminator 2 view .LVU269
 1297 002a FFF7FEFF 		bl	GPIO_ResetBits
 1298              	.LVL138:
 219:HW/FLASH/External_Flash/exFlash.c ****     FLASH_EX_CHECK(Flash_EX_Send_Byte(0X20));   // Erase Sector
 1299              		.loc 1 219 5 is_stmt 1 discriminator 2 view .LVU270
 1300 002e 2020     		movs	r0, #32
 1301 0030 FFF7FEFF 		bl	Flash_EX_Send_Byte
 1302              	.LVL139:
 1303              		.loc 1 219 5 discriminator 2 view .LVU271
 1304 0034 0446     		mov	r4, r0
 1305 0036 0028     		cmp	r0, #0
 1306 0038 61D1     		bne	.L101
 1307              		.loc 1 219 45 discriminator 2 view .LVU272
 220:HW/FLASH/External_Flash/exFlash.c ****     FLASH_EX_CHECK(Flash_EX_Send_Byte((addr & 0XFF0000) >> 16));
 1308              		.loc 1 220 5 discriminator 2 view .LVU273
 1309 003a C5F30740 		ubfx	r0, r5, #16, #8
 1310              	.LVL140:
 1311              		.loc 1 220 5 is_stmt 0 discriminator 2 view .LVU274
 1312 003e FFF7FEFF 		bl	Flash_EX_Send_Byte
 1313              	.LVL141:
 1314              		.loc 1 220 5 is_stmt 1 discriminator 2 view .LVU275
 1315 0042 0446     		mov	r4, r0
 1316 0044 0028     		cmp	r0, #0
 1317 0046 69D1     		bne	.L102
 1318              		.loc 1 220 64 discriminator 2 view .LVU276
 221:HW/FLASH/External_Flash/exFlash.c ****     FLASH_EX_CHECK(Flash_EX_Send_Byte((addr & 0X00FF00) >>  8));
 1319              		.loc 1 221 5 discriminator 2 view .LVU277
 1320 0048 C5F30720 		ubfx	r0, r5, #8, #8
 1321              	.LVL142:
 1322              		.loc 1 221 5 is_stmt 0 discriminator 2 view .LVU278
 1323 004c FFF7FEFF 		bl	Flash_EX_Send_Byte
 1324              	.LVL143:
 1325              		.loc 1 221 5 is_stmt 1 discriminator 2 view .LVU279
 1326 0050 0446     		mov	r4, r0
 1327 0052 0028     		cmp	r0, #0
 1328 0054 71D1     		bne	.L103
ARM GAS  C:\Users\86157\AppData\Local\Temp\ccszuV1u.s 			page 29


 1329              		.loc 1 221 64 discriminator 2 view .LVU280
 222:HW/FLASH/External_Flash/exFlash.c ****     FLASH_EX_CHECK(Flash_EX_Send_Byte((addr & 0X0000FF) >>  0));
 1330              		.loc 1 222 5 discriminator 2 view .LVU281
 1331 0056 E8B2     		uxtb	r0, r5
 1332              	.LVL144:
 1333              		.loc 1 222 5 is_stmt 0 discriminator 2 view .LVU282
 1334 0058 FFF7FEFF 		bl	Flash_EX_Send_Byte
 1335              	.LVL145:
 1336              		.loc 1 222 5 is_stmt 1 discriminator 2 view .LVU283
 1337 005c 0446     		mov	r4, r0
 1338 005e 0028     		cmp	r0, #0
 1339 0060 7AD1     		bne	.L104
 1340              		.loc 1 222 64 discriminator 2 view .LVU284
 223:HW/FLASH/External_Flash/exFlash.c ****     Flash_EX_CS_High();
 1341              		.loc 1 223 5 discriminator 2 view .LVU285
 1342 0062 4FF48051 		mov	r1, #4096
 1343 0066 4B48     		ldr	r0, .L106
 1344              	.LVL146:
 1345              		.loc 1 223 5 is_stmt 0 discriminator 2 view .LVU286
 1346 0068 FFF7FEFF 		bl	GPIO_SetBits
 1347              	.LVL147:
 224:HW/FLASH/External_Flash/exFlash.c ****     FLASH_EX_CHECK(Flash_EX_Synchronize());
 1348              		.loc 1 224 5 is_stmt 1 discriminator 2 view .LVU287
 1349 006c FFF7FEFF 		bl	Flash_EX_Synchronize
 1350              	.LVL148:
 1351              		.loc 1 224 5 discriminator 2 view .LVU288
 1352 0070 0446     		mov	r4, r0
 1353 0072 0028     		cmp	r0, #0
 1354 0074 7FD1     		bne	.L105
 1355              		.loc 1 224 43 discriminator 2 view .LVU289
 225:HW/FLASH/External_Flash/exFlash.c ****     FLASH_EX_CHECK(Flash_EX_Write_Disable());
 1356              		.loc 1 225 5 discriminator 2 view .LVU290
 1357 0076 FFF7FEFF 		bl	Flash_EX_Write_Disable
 1358              	.LVL149:
 1359              		.loc 1 225 5 discriminator 2 view .LVU291
 1360 007a 0446     		mov	r4, r0
 1361 007c 40B3     		cbz	r0, .L89
 1362              		.loc 1 225 5 discriminator 1 view .LVU292
 1363 007e 464B     		ldr	r3, .L106+4
 1364 0080 1B68     		ldr	r3, [r3]
 1365 0082 D868     		ldr	r0, [r3, #12]
 1366              	.LVL150:
 1367              		.loc 1 225 5 is_stmt 0 discriminator 1 view .LVU293
 1368 0084 04EB8402 		add	r2, r4, r4, lsl #2
 1369 0088 444B     		ldr	r3, .L106+8
 1370 008a 0093     		str	r3, [sp]
 1371 008c E123     		movs	r3, #225
 1372 008e 4449     		ldr	r1, .L106+12
 1373 0090 01EB8202 		add	r2, r1, r2, lsl #2
 1374 0094 4349     		ldr	r1, .L106+16
 1375 0096 FFF7FEFF 		bl	fprintf
 1376              	.LVL151:
 1377              		.loc 1 225 5 is_stmt 1 discriminator 1 view .LVU294
 1378 009a 19E0     		b	.L89
 1379              	.LVL152:
 1380              	.L98:
 213:HW/FLASH/External_Flash/exFlash.c **** 
ARM GAS  C:\Users\86157\AppData\Local\Temp\ccszuV1u.s 			page 30


 1381              		.loc 1 213 5 discriminator 1 view .LVU295
 213:HW/FLASH/External_Flash/exFlash.c **** 
 1382              		.loc 1 213 5 discriminator 1 view .LVU296
 1383 009c 3E4B     		ldr	r3, .L106+4
 1384 009e 1B68     		ldr	r3, [r3]
 1385 00a0 D868     		ldr	r0, [r3, #12]
 1386              	.LVL153:
 213:HW/FLASH/External_Flash/exFlash.c **** 
 1387              		.loc 1 213 5 is_stmt 0 discriminator 1 view .LVU297
 1388 00a2 3E4B     		ldr	r3, .L106+8
 1389 00a4 0093     		str	r3, [sp]
 1390 00a6 D523     		movs	r3, #213
 1391 00a8 3F4A     		ldr	r2, .L106+20
 1392 00aa 3E49     		ldr	r1, .L106+16
 1393 00ac FFF7FEFF 		bl	fprintf
 1394              	.LVL154:
 213:HW/FLASH/External_Flash/exFlash.c **** 
 1395              		.loc 1 213 5 is_stmt 1 discriminator 1 view .LVU298
 1396 00b0 0224     		movs	r4, #2
 1397 00b2 0DE0     		b	.L89
 1398              	.LVL155:
 1399              	.L99:
 216:HW/FLASH/External_Flash/exFlash.c ****     FLASH_EX_CHECK(Flash_EX_Write_Enable());
 1400              		.loc 1 216 5 discriminator 1 view .LVU299
 1401 00b4 384B     		ldr	r3, .L106+4
 1402 00b6 1B68     		ldr	r3, [r3]
 1403 00b8 D868     		ldr	r0, [r3, #12]
 1404              	.LVL156:
 216:HW/FLASH/External_Flash/exFlash.c ****     FLASH_EX_CHECK(Flash_EX_Write_Enable());
 1405              		.loc 1 216 5 is_stmt 0 discriminator 1 view .LVU300
 1406 00ba 04EB8402 		add	r2, r4, r4, lsl #2
 1407 00be 374B     		ldr	r3, .L106+8
 1408 00c0 0093     		str	r3, [sp]
 1409 00c2 D823     		movs	r3, #216
 1410 00c4 3649     		ldr	r1, .L106+12
 1411 00c6 01EB8202 		add	r2, r1, r2, lsl #2
 1412 00ca 3649     		ldr	r1, .L106+16
 1413 00cc FFF7FEFF 		bl	fprintf
 1414              	.LVL157:
 216:HW/FLASH/External_Flash/exFlash.c ****     FLASH_EX_CHECK(Flash_EX_Write_Enable());
 1415              		.loc 1 216 5 is_stmt 1 discriminator 1 view .LVU301
 1416              	.L89:
 1417              		.loc 1 225 45 discriminator 3 view .LVU302
 226:HW/FLASH/External_Flash/exFlash.c **** FLASH_EX_ERR_FLAG:
 227:HW/FLASH/External_Flash/exFlash.c ****     Flash_EX_CS_High();
 1418              		.loc 1 227 5 discriminator 3 view .LVU303
 1419 00d0 4FF48051 		mov	r1, #4096
 1420 00d4 2F48     		ldr	r0, .L106
 1421 00d6 FFF7FEFF 		bl	GPIO_SetBits
 1422              	.LVL158:
 228:HW/FLASH/External_Flash/exFlash.c ****     return err;
 1423              		.loc 1 228 5 discriminator 3 view .LVU304
 229:HW/FLASH/External_Flash/exFlash.c **** }
 1424              		.loc 1 229 1 is_stmt 0 discriminator 3 view .LVU305
 1425 00da 2046     		mov	r0, r4
 1426 00dc 03B0     		add	sp, sp, #12
 1427              	.LCFI37:
ARM GAS  C:\Users\86157\AppData\Local\Temp\ccszuV1u.s 			page 31


 1428              		.cfi_remember_state
 1429              		.cfi_def_cfa_offset 12
 1430              		@ sp needed
 1431 00de 30BD     		pop	{r4, r5, pc}
 1432              	.LVL159:
 1433              	.L100:
 1434              	.LCFI38:
 1435              		.cfi_restore_state
 217:HW/FLASH/External_Flash/exFlash.c ****     Flash_EX_CS_Low();
 1436              		.loc 1 217 5 is_stmt 1 discriminator 1 view .LVU306
 1437 00e0 2D4B     		ldr	r3, .L106+4
 1438 00e2 1B68     		ldr	r3, [r3]
 1439 00e4 D868     		ldr	r0, [r3, #12]
 1440              	.LVL160:
 217:HW/FLASH/External_Flash/exFlash.c ****     Flash_EX_CS_Low();
 1441              		.loc 1 217 5 is_stmt 0 discriminator 1 view .LVU307
 1442 00e6 04EB8402 		add	r2, r4, r4, lsl #2
 1443 00ea 2C4B     		ldr	r3, .L106+8
 1444 00ec 0093     		str	r3, [sp]
 1445 00ee D923     		movs	r3, #217
 1446 00f0 2B49     		ldr	r1, .L106+12
 1447 00f2 01EB8202 		add	r2, r1, r2, lsl #2
 1448 00f6 2B49     		ldr	r1, .L106+16
 1449 00f8 FFF7FEFF 		bl	fprintf
 1450              	.LVL161:
 217:HW/FLASH/External_Flash/exFlash.c ****     Flash_EX_CS_Low();
 1451              		.loc 1 217 5 is_stmt 1 discriminator 1 view .LVU308
 1452 00fc E8E7     		b	.L89
 1453              	.LVL162:
 1454              	.L101:
 219:HW/FLASH/External_Flash/exFlash.c ****     FLASH_EX_CHECK(Flash_EX_Send_Byte((addr & 0XFF0000) >> 16));
 1455              		.loc 1 219 5 discriminator 1 view .LVU309
 1456 00fe 264B     		ldr	r3, .L106+4
 1457 0100 1B68     		ldr	r3, [r3]
 1458 0102 D868     		ldr	r0, [r3, #12]
 1459              	.LVL163:
 219:HW/FLASH/External_Flash/exFlash.c ****     FLASH_EX_CHECK(Flash_EX_Send_Byte((addr & 0XFF0000) >> 16));
 1460              		.loc 1 219 5 is_stmt 0 discriminator 1 view .LVU310
 1461 0104 04EB8402 		add	r2, r4, r4, lsl #2
 1462 0108 244B     		ldr	r3, .L106+8
 1463 010a 0093     		str	r3, [sp]
 1464 010c DB23     		movs	r3, #219
 1465 010e 2449     		ldr	r1, .L106+12
 1466 0110 01EB8202 		add	r2, r1, r2, lsl #2
 1467 0114 2349     		ldr	r1, .L106+16
 1468 0116 FFF7FEFF 		bl	fprintf
 1469              	.LVL164:
 219:HW/FLASH/External_Flash/exFlash.c ****     FLASH_EX_CHECK(Flash_EX_Send_Byte((addr & 0XFF0000) >> 16));
 1470              		.loc 1 219 5 is_stmt 1 discriminator 1 view .LVU311
 1471 011a D9E7     		b	.L89
 1472              	.LVL165:
 1473              	.L102:
 220:HW/FLASH/External_Flash/exFlash.c ****     FLASH_EX_CHECK(Flash_EX_Send_Byte((addr & 0X00FF00) >>  8));
 1474              		.loc 1 220 5 discriminator 1 view .LVU312
 1475 011c 1E4B     		ldr	r3, .L106+4
 1476 011e 1B68     		ldr	r3, [r3]
 1477 0120 D868     		ldr	r0, [r3, #12]
ARM GAS  C:\Users\86157\AppData\Local\Temp\ccszuV1u.s 			page 32


 1478              	.LVL166:
 220:HW/FLASH/External_Flash/exFlash.c ****     FLASH_EX_CHECK(Flash_EX_Send_Byte((addr & 0X00FF00) >>  8));
 1479              		.loc 1 220 5 is_stmt 0 discriminator 1 view .LVU313
 1480 0122 04EB8402 		add	r2, r4, r4, lsl #2
 1481 0126 1D4B     		ldr	r3, .L106+8
 1482 0128 0093     		str	r3, [sp]
 1483 012a DC23     		movs	r3, #220
 1484 012c 1C49     		ldr	r1, .L106+12
 1485 012e 01EB8202 		add	r2, r1, r2, lsl #2
 1486 0132 1C49     		ldr	r1, .L106+16
 1487 0134 FFF7FEFF 		bl	fprintf
 1488              	.LVL167:
 220:HW/FLASH/External_Flash/exFlash.c ****     FLASH_EX_CHECK(Flash_EX_Send_Byte((addr & 0X00FF00) >>  8));
 1489              		.loc 1 220 5 is_stmt 1 discriminator 1 view .LVU314
 1490 0138 CAE7     		b	.L89
 1491              	.LVL168:
 1492              	.L103:
 221:HW/FLASH/External_Flash/exFlash.c ****     FLASH_EX_CHECK(Flash_EX_Send_Byte((addr & 0X0000FF) >>  0));
 1493              		.loc 1 221 5 discriminator 1 view .LVU315
 1494 013a 174B     		ldr	r3, .L106+4
 1495 013c 1B68     		ldr	r3, [r3]
 1496 013e D868     		ldr	r0, [r3, #12]
 1497              	.LVL169:
 221:HW/FLASH/External_Flash/exFlash.c ****     FLASH_EX_CHECK(Flash_EX_Send_Byte((addr & 0X0000FF) >>  0));
 1498              		.loc 1 221 5 is_stmt 0 discriminator 1 view .LVU316
 1499 0140 04EB8402 		add	r2, r4, r4, lsl #2
 1500 0144 154B     		ldr	r3, .L106+8
 1501 0146 0093     		str	r3, [sp]
 1502 0148 DD23     		movs	r3, #221
 1503 014a 1549     		ldr	r1, .L106+12
 1504 014c 01EB8202 		add	r2, r1, r2, lsl #2
 1505 0150 1449     		ldr	r1, .L106+16
 1506 0152 FFF7FEFF 		bl	fprintf
 1507              	.LVL170:
 221:HW/FLASH/External_Flash/exFlash.c ****     FLASH_EX_CHECK(Flash_EX_Send_Byte((addr & 0X0000FF) >>  0));
 1508              		.loc 1 221 5 is_stmt 1 discriminator 1 view .LVU317
 1509 0156 BBE7     		b	.L89
 1510              	.LVL171:
 1511              	.L104:
 222:HW/FLASH/External_Flash/exFlash.c ****     Flash_EX_CS_High();
 1512              		.loc 1 222 5 discriminator 1 view .LVU318
 1513 0158 0F4B     		ldr	r3, .L106+4
 1514 015a 1B68     		ldr	r3, [r3]
 1515 015c D868     		ldr	r0, [r3, #12]
 1516              	.LVL172:
 222:HW/FLASH/External_Flash/exFlash.c ****     Flash_EX_CS_High();
 1517              		.loc 1 222 5 is_stmt 0 discriminator 1 view .LVU319
 1518 015e 04EB8402 		add	r2, r4, r4, lsl #2
 1519 0162 0E4B     		ldr	r3, .L106+8
 1520 0164 0093     		str	r3, [sp]
 1521 0166 DE23     		movs	r3, #222
 1522 0168 0D49     		ldr	r1, .L106+12
 1523 016a 01EB8202 		add	r2, r1, r2, lsl #2
 1524 016e 0D49     		ldr	r1, .L106+16
 1525 0170 FFF7FEFF 		bl	fprintf
 1526              	.LVL173:
 222:HW/FLASH/External_Flash/exFlash.c ****     Flash_EX_CS_High();
ARM GAS  C:\Users\86157\AppData\Local\Temp\ccszuV1u.s 			page 33


 1527              		.loc 1 222 5 is_stmt 1 discriminator 1 view .LVU320
 1528 0174 ACE7     		b	.L89
 1529              	.LVL174:
 1530              	.L105:
 224:HW/FLASH/External_Flash/exFlash.c ****     FLASH_EX_CHECK(Flash_EX_Write_Disable());
 1531              		.loc 1 224 5 discriminator 1 view .LVU321
 1532 0176 084B     		ldr	r3, .L106+4
 1533 0178 1B68     		ldr	r3, [r3]
 1534 017a D868     		ldr	r0, [r3, #12]
 1535              	.LVL175:
 224:HW/FLASH/External_Flash/exFlash.c ****     FLASH_EX_CHECK(Flash_EX_Write_Disable());
 1536              		.loc 1 224 5 is_stmt 0 discriminator 1 view .LVU322
 1537 017c 04EB8402 		add	r2, r4, r4, lsl #2
 1538 0180 064B     		ldr	r3, .L106+8
 1539 0182 0093     		str	r3, [sp]
 1540 0184 E023     		movs	r3, #224
 1541 0186 0649     		ldr	r1, .L106+12
 1542 0188 01EB8202 		add	r2, r1, r2, lsl #2
 1543 018c 0549     		ldr	r1, .L106+16
 1544 018e FFF7FEFF 		bl	fprintf
 1545              	.LVL176:
 224:HW/FLASH/External_Flash/exFlash.c ****     FLASH_EX_CHECK(Flash_EX_Write_Disable());
 1546              		.loc 1 224 5 is_stmt 1 discriminator 1 view .LVU323
 1547 0192 9DE7     		b	.L89
 1548              	.L107:
 1549              		.align	2
 1550              	.L106:
 1551 0194 000C0140 		.word	1073810432
 1552 0198 00000000 		.word	_impure_ptr
 1553 019c 00000000 		.word	__FUNCTION__.5
 1554 01a0 00000000 		.word	errInfo
 1555 01a4 00000000 		.word	.LC1
 1556 01a8 28000000 		.word	errInfo+40
 1557              		.cfi_endproc
 1558              	.LFE42:
 1560              		.section	.text.Flash_EX_Read,"ax",%progbits
 1561              		.align	1
 1562              		.global	Flash_EX_Read
 1563              		.syntax unified
 1564              		.thumb
 1565              		.thumb_func
 1567              	Flash_EX_Read:
 1568              	.LVL177:
 1569              	.LFB43:
 230:HW/FLASH/External_Flash/exFlash.c **** 
 231:HW/FLASH/External_Flash/exFlash.c **** /* ËØªÂèñÊï∞ÊçÆ */
 232:HW/FLASH/External_Flash/exFlash.c **** Flash_EX_Errors_t Flash_EX_Read(uint8_t* dst, uint32_t addr, uint32_t size){
 1570              		.loc 1 232 76 view -0
 1571              		.cfi_startproc
 1572              		@ args = 0, pretend = 0, frame = 0
 1573              		@ frame_needed = 0, uses_anonymous_args = 0
 1574              		.loc 1 232 76 is_stmt 0 view .LVU325
 1575 0000 F0B5     		push	{r4, r5, r6, r7, lr}
 1576              	.LCFI39:
 1577              		.cfi_def_cfa_offset 20
 1578              		.cfi_offset 4, -20
 1579              		.cfi_offset 5, -16
ARM GAS  C:\Users\86157\AppData\Local\Temp\ccszuV1u.s 			page 34


 1580              		.cfi_offset 6, -12
 1581              		.cfi_offset 7, -8
 1582              		.cfi_offset 14, -4
 1583 0002 83B0     		sub	sp, sp, #12
 1584              	.LCFI40:
 1585              		.cfi_def_cfa_offset 32
 233:HW/FLASH/External_Flash/exFlash.c ****     Flash_EX_Errors_t err = 0;
 1586              		.loc 1 233 5 is_stmt 1 view .LVU326
 1587              	.LVL178:
 234:HW/FLASH/External_Flash/exFlash.c ****     /* Âà§Êñ≠ÊòØÂê¶Ë∂äÁïå */
 235:HW/FLASH/External_Flash/exFlash.c ****     CHECK_BOUND(addr + size - 1);
 1588              		.loc 1 235 5 view .LVU327
 1589 0004 8B18     		adds	r3, r1, r2
 1590 0006 013B     		subs	r3, r3, #1
 1591 0008 B3F1006F 		cmp	r3, #134217728
 1592 000c 38D2     		bcs	.L121
 1593 000e 0746     		mov	r7, r0
 1594 0010 0E46     		mov	r6, r1
 1595 0012 1546     		mov	r5, r2
 1596              		.loc 1 235 33 discriminator 2 view .LVU328
 236:HW/FLASH/External_Flash/exFlash.c **** 
 237:HW/FLASH/External_Flash/exFlash.c ****     /* ËØªÂèñ */
 238:HW/FLASH/External_Flash/exFlash.c ****     FLASH_EX_CHECK(Flash_EX_Synchronize());
 1597              		.loc 1 238 5 discriminator 2 view .LVU329
 1598 0014 FFF7FEFF 		bl	Flash_EX_Synchronize
 1599              	.LVL179:
 1600              		.loc 1 238 5 discriminator 2 view .LVU330
 1601 0018 0446     		mov	r4, r0
 1602 001a 0028     		cmp	r0, #0
 1603 001c 3CD1     		bne	.L122
 1604              		.loc 1 238 43 discriminator 2 view .LVU331
 239:HW/FLASH/External_Flash/exFlash.c ****     Flash_EX_CS_Low();
 1605              		.loc 1 239 5 discriminator 2 view .LVU332
 1606 001e 4FF48051 		mov	r1, #4096
 1607 0022 6248     		ldr	r0, .L130
 1608              	.LVL180:
 1609              		.loc 1 239 5 is_stmt 0 discriminator 2 view .LVU333
 1610 0024 FFF7FEFF 		bl	GPIO_ResetBits
 1611              	.LVL181:
 240:HW/FLASH/External_Flash/exFlash.c ****     FLASH_EX_CHECK(Flash_EX_Send_Byte(0X0B));   // Fast Read
 1612              		.loc 1 240 5 is_stmt 1 discriminator 2 view .LVU334
 1613 0028 0B20     		movs	r0, #11
 1614 002a FFF7FEFF 		bl	Flash_EX_Send_Byte
 1615              	.LVL182:
 1616              		.loc 1 240 5 discriminator 2 view .LVU335
 1617 002e 0446     		mov	r4, r0
 1618 0030 0028     		cmp	r0, #0
 1619 0032 47D1     		bne	.L123
 1620              		.loc 1 240 45 discriminator 2 view .LVU336
 241:HW/FLASH/External_Flash/exFlash.c ****     FLASH_EX_CHECK(Flash_EX_Send_Byte((addr & 0XFF0000) >> 16));
 1621              		.loc 1 241 5 discriminator 2 view .LVU337
 1622 0034 C6F30740 		ubfx	r0, r6, #16, #8
 1623              	.LVL183:
 1624              		.loc 1 241 5 is_stmt 0 discriminator 2 view .LVU338
 1625 0038 FFF7FEFF 		bl	Flash_EX_Send_Byte
 1626              	.LVL184:
 1627              		.loc 1 241 5 is_stmt 1 discriminator 2 view .LVU339
ARM GAS  C:\Users\86157\AppData\Local\Temp\ccszuV1u.s 			page 35


 1628 003c 0446     		mov	r4, r0
 1629 003e 0028     		cmp	r0, #0
 1630 0040 4FD1     		bne	.L124
 1631              		.loc 1 241 64 discriminator 2 view .LVU340
 242:HW/FLASH/External_Flash/exFlash.c ****     FLASH_EX_CHECK(Flash_EX_Send_Byte((addr & 0X00FF00) >>  8));
 1632              		.loc 1 242 5 discriminator 2 view .LVU341
 1633 0042 C6F30720 		ubfx	r0, r6, #8, #8
 1634              	.LVL185:
 1635              		.loc 1 242 5 is_stmt 0 discriminator 2 view .LVU342
 1636 0046 FFF7FEFF 		bl	Flash_EX_Send_Byte
 1637              	.LVL186:
 1638              		.loc 1 242 5 is_stmt 1 discriminator 2 view .LVU343
 1639 004a 0446     		mov	r4, r0
 1640 004c 0028     		cmp	r0, #0
 1641 004e 57D1     		bne	.L125
 1642              		.loc 1 242 64 discriminator 2 view .LVU344
 243:HW/FLASH/External_Flash/exFlash.c ****     FLASH_EX_CHECK(Flash_EX_Send_Byte((addr & 0X0000FF) >>  0));
 1643              		.loc 1 243 5 discriminator 2 view .LVU345
 1644 0050 F0B2     		uxtb	r0, r6
 1645              	.LVL187:
 1646              		.loc 1 243 5 is_stmt 0 discriminator 2 view .LVU346
 1647 0052 FFF7FEFF 		bl	Flash_EX_Send_Byte
 1648              	.LVL188:
 1649              		.loc 1 243 5 is_stmt 1 discriminator 2 view .LVU347
 1650 0056 0446     		mov	r4, r0
 1651 0058 0028     		cmp	r0, #0
 1652 005a 60D1     		bne	.L126
 1653              		.loc 1 243 64 discriminator 2 view .LVU348
 244:HW/FLASH/External_Flash/exFlash.c ****     FLASH_EX_CHECK(Flash_EX_Send_Byte(DUMMY_BYTE));
 1654              		.loc 1 244 5 discriminator 2 view .LVU349
 1655 005c FF20     		movs	r0, #255
 1656              	.LVL189:
 1657              		.loc 1 244 5 is_stmt 0 discriminator 2 view .LVU350
 1658 005e FFF7FEFF 		bl	Flash_EX_Send_Byte
 1659              	.LVL190:
 1660              		.loc 1 244 5 is_stmt 1 discriminator 2 view .LVU351
 1661 0062 0446     		mov	r4, r0
 1662 0064 0028     		cmp	r0, #0
 1663 0066 69D1     		bne	.L127
 245:HW/FLASH/External_Flash/exFlash.c ****     uint32_t idx;
 246:HW/FLASH/External_Flash/exFlash.c ****     for(idx = 0; idx < size; ++idx){
 1664              		.loc 1 246 13 is_stmt 0 view .LVU352
 1665 0068 0026     		movs	r6, #0
 1666              	.LVL191:
 1667              	.L116:
 1668              		.loc 1 246 22 is_stmt 1 discriminator 2 view .LVU353
 1669 006a AE42     		cmp	r6, r5
 1670 006c 80F08480 		bcs	.L128
 247:HW/FLASH/External_Flash/exFlash.c ****         FLASH_EX_CHECK(Flash_EX_Recieve_Byte(&dst[idx]));
 1671              		.loc 1 247 9 view .LVU354
 1672 0070 B819     		adds	r0, r7, r6
 1673              	.LVL192:
 1674              		.loc 1 247 9 is_stmt 0 view .LVU355
 1675 0072 FFF7FEFF 		bl	Flash_EX_Recieve_Byte
 1676              	.LVL193:
 1677              		.loc 1 247 9 is_stmt 1 view .LVU356
 1678 0076 0446     		mov	r4, r0
ARM GAS  C:\Users\86157\AppData\Local\Temp\ccszuV1u.s 			page 36


 1679 0078 0028     		cmp	r0, #0
 1680 007a 6ED1     		bne	.L129
 1681              		.loc 1 247 57 discriminator 2 view .LVU357
 246:HW/FLASH/External_Flash/exFlash.c ****         FLASH_EX_CHECK(Flash_EX_Recieve_Byte(&dst[idx]));
 1682              		.loc 1 246 30 discriminator 2 view .LVU358
 1683 007c 0136     		adds	r6, r6, #1
 1684              	.LVL194:
 246:HW/FLASH/External_Flash/exFlash.c ****         FLASH_EX_CHECK(Flash_EX_Recieve_Byte(&dst[idx]));
 1685              		.loc 1 246 30 is_stmt 0 discriminator 2 view .LVU359
 1686 007e F4E7     		b	.L116
 1687              	.LVL195:
 1688              	.L121:
 235:HW/FLASH/External_Flash/exFlash.c **** 
 1689              		.loc 1 235 5 is_stmt 1 discriminator 1 view .LVU360
 235:HW/FLASH/External_Flash/exFlash.c **** 
 1690              		.loc 1 235 5 discriminator 1 view .LVU361
 1691 0080 4B4B     		ldr	r3, .L130+4
 1692 0082 1B68     		ldr	r3, [r3]
 1693 0084 D868     		ldr	r0, [r3, #12]
 1694              	.LVL196:
 235:HW/FLASH/External_Flash/exFlash.c **** 
 1695              		.loc 1 235 5 is_stmt 0 discriminator 1 view .LVU362
 1696 0086 4B4B     		ldr	r3, .L130+8
 1697 0088 0093     		str	r3, [sp]
 1698 008a EB23     		movs	r3, #235
 1699 008c 4A4A     		ldr	r2, .L130+12
 1700              	.LVL197:
 235:HW/FLASH/External_Flash/exFlash.c **** 
 1701              		.loc 1 235 5 discriminator 1 view .LVU363
 1702 008e 4B49     		ldr	r1, .L130+16
 1703              	.LVL198:
 235:HW/FLASH/External_Flash/exFlash.c **** 
 1704              		.loc 1 235 5 discriminator 1 view .LVU364
 1705 0090 FFF7FEFF 		bl	fprintf
 1706              	.LVL199:
 235:HW/FLASH/External_Flash/exFlash.c **** 
 1707              		.loc 1 235 5 is_stmt 1 discriminator 1 view .LVU365
 1708 0094 0224     		movs	r4, #2
 1709 0096 0DE0     		b	.L110
 1710              	.LVL200:
 1711              	.L122:
 238:HW/FLASH/External_Flash/exFlash.c ****     Flash_EX_CS_Low();
 1712              		.loc 1 238 5 discriminator 1 view .LVU366
 1713 0098 454B     		ldr	r3, .L130+4
 1714 009a 1B68     		ldr	r3, [r3]
 1715 009c D868     		ldr	r0, [r3, #12]
 1716              	.LVL201:
 238:HW/FLASH/External_Flash/exFlash.c ****     Flash_EX_CS_Low();
 1717              		.loc 1 238 5 is_stmt 0 discriminator 1 view .LVU367
 1718 009e 04EB8402 		add	r2, r4, r4, lsl #2
 1719 00a2 444B     		ldr	r3, .L130+8
 1720 00a4 0093     		str	r3, [sp]
 1721 00a6 EE23     		movs	r3, #238
 1722 00a8 4549     		ldr	r1, .L130+20
 1723 00aa 01EB8202 		add	r2, r1, r2, lsl #2
 1724 00ae 4349     		ldr	r1, .L130+16
 1725 00b0 FFF7FEFF 		bl	fprintf
ARM GAS  C:\Users\86157\AppData\Local\Temp\ccszuV1u.s 			page 37


 1726              	.LVL202:
 238:HW/FLASH/External_Flash/exFlash.c ****     Flash_EX_CS_Low();
 1727              		.loc 1 238 5 is_stmt 1 discriminator 1 view .LVU368
 1728              	.L110:
 248:HW/FLASH/External_Flash/exFlash.c ****     }
 249:HW/FLASH/External_Flash/exFlash.c ****     Flash_EX_CS_High();
 250:HW/FLASH/External_Flash/exFlash.c ****     FLASH_EX_CHECK(Flash_EX_Synchronize());
 1729              		.loc 1 250 43 discriminator 3 view .LVU369
 251:HW/FLASH/External_Flash/exFlash.c **** FLASH_EX_ERR_FLAG:
 252:HW/FLASH/External_Flash/exFlash.c ****     Flash_EX_CS_High();
 1730              		.loc 1 252 5 discriminator 3 view .LVU370
 1731 00b4 4FF48051 		mov	r1, #4096
 1732 00b8 3C48     		ldr	r0, .L130
 1733 00ba FFF7FEFF 		bl	GPIO_SetBits
 1734              	.LVL203:
 253:HW/FLASH/External_Flash/exFlash.c ****     return err;
 1735              		.loc 1 253 5 discriminator 3 view .LVU371
 254:HW/FLASH/External_Flash/exFlash.c **** }
 1736              		.loc 1 254 1 is_stmt 0 discriminator 3 view .LVU372
 1737 00be 2046     		mov	r0, r4
 1738 00c0 03B0     		add	sp, sp, #12
 1739              	.LCFI41:
 1740              		.cfi_remember_state
 1741              		.cfi_def_cfa_offset 20
 1742              		@ sp needed
 1743 00c2 F0BD     		pop	{r4, r5, r6, r7, pc}
 1744              	.LVL204:
 1745              	.L123:
 1746              	.LCFI42:
 1747              		.cfi_restore_state
 240:HW/FLASH/External_Flash/exFlash.c ****     FLASH_EX_CHECK(Flash_EX_Send_Byte((addr & 0XFF0000) >> 16));
 1748              		.loc 1 240 5 is_stmt 1 discriminator 1 view .LVU373
 1749 00c4 3A4B     		ldr	r3, .L130+4
 1750 00c6 1B68     		ldr	r3, [r3]
 1751 00c8 D868     		ldr	r0, [r3, #12]
 1752              	.LVL205:
 240:HW/FLASH/External_Flash/exFlash.c ****     FLASH_EX_CHECK(Flash_EX_Send_Byte((addr & 0XFF0000) >> 16));
 1753              		.loc 1 240 5 is_stmt 0 discriminator 1 view .LVU374
 1754 00ca 04EB8402 		add	r2, r4, r4, lsl #2
 1755 00ce 394B     		ldr	r3, .L130+8
 1756 00d0 0093     		str	r3, [sp]
 1757 00d2 F023     		movs	r3, #240
 1758 00d4 3A49     		ldr	r1, .L130+20
 1759 00d6 01EB8202 		add	r2, r1, r2, lsl #2
 1760 00da 3849     		ldr	r1, .L130+16
 1761 00dc FFF7FEFF 		bl	fprintf
 1762              	.LVL206:
 240:HW/FLASH/External_Flash/exFlash.c ****     FLASH_EX_CHECK(Flash_EX_Send_Byte((addr & 0XFF0000) >> 16));
 1763              		.loc 1 240 5 is_stmt 1 discriminator 1 view .LVU375
 1764 00e0 E8E7     		b	.L110
 1765              	.LVL207:
 1766              	.L124:
 241:HW/FLASH/External_Flash/exFlash.c ****     FLASH_EX_CHECK(Flash_EX_Send_Byte((addr & 0X00FF00) >>  8));
 1767              		.loc 1 241 5 discriminator 1 view .LVU376
 1768 00e2 334B     		ldr	r3, .L130+4
 1769 00e4 1B68     		ldr	r3, [r3]
 1770 00e6 D868     		ldr	r0, [r3, #12]
ARM GAS  C:\Users\86157\AppData\Local\Temp\ccszuV1u.s 			page 38


 1771              	.LVL208:
 241:HW/FLASH/External_Flash/exFlash.c ****     FLASH_EX_CHECK(Flash_EX_Send_Byte((addr & 0X00FF00) >>  8));
 1772              		.loc 1 241 5 is_stmt 0 discriminator 1 view .LVU377
 1773 00e8 04EB8402 		add	r2, r4, r4, lsl #2
 1774 00ec 314B     		ldr	r3, .L130+8
 1775 00ee 0093     		str	r3, [sp]
 1776 00f0 F123     		movs	r3, #241
 1777 00f2 3349     		ldr	r1, .L130+20
 1778 00f4 01EB8202 		add	r2, r1, r2, lsl #2
 1779 00f8 3049     		ldr	r1, .L130+16
 1780 00fa FFF7FEFF 		bl	fprintf
 1781              	.LVL209:
 241:HW/FLASH/External_Flash/exFlash.c ****     FLASH_EX_CHECK(Flash_EX_Send_Byte((addr & 0X00FF00) >>  8));
 1782              		.loc 1 241 5 is_stmt 1 discriminator 1 view .LVU378
 1783 00fe D9E7     		b	.L110
 1784              	.LVL210:
 1785              	.L125:
 242:HW/FLASH/External_Flash/exFlash.c ****     FLASH_EX_CHECK(Flash_EX_Send_Byte((addr & 0X0000FF) >>  0));
 1786              		.loc 1 242 5 discriminator 1 view .LVU379
 1787 0100 2B4B     		ldr	r3, .L130+4
 1788 0102 1B68     		ldr	r3, [r3]
 1789 0104 D868     		ldr	r0, [r3, #12]
 1790              	.LVL211:
 242:HW/FLASH/External_Flash/exFlash.c ****     FLASH_EX_CHECK(Flash_EX_Send_Byte((addr & 0X0000FF) >>  0));
 1791              		.loc 1 242 5 is_stmt 0 discriminator 1 view .LVU380
 1792 0106 04EB8402 		add	r2, r4, r4, lsl #2
 1793 010a 2A4B     		ldr	r3, .L130+8
 1794 010c 0093     		str	r3, [sp]
 1795 010e F223     		movs	r3, #242
 1796 0110 2B49     		ldr	r1, .L130+20
 1797 0112 01EB8202 		add	r2, r1, r2, lsl #2
 1798 0116 2949     		ldr	r1, .L130+16
 1799 0118 FFF7FEFF 		bl	fprintf
 1800              	.LVL212:
 242:HW/FLASH/External_Flash/exFlash.c ****     FLASH_EX_CHECK(Flash_EX_Send_Byte((addr & 0X0000FF) >>  0));
 1801              		.loc 1 242 5 is_stmt 1 discriminator 1 view .LVU381
 1802 011c CAE7     		b	.L110
 1803              	.LVL213:
 1804              	.L126:
 243:HW/FLASH/External_Flash/exFlash.c ****     FLASH_EX_CHECK(Flash_EX_Send_Byte(DUMMY_BYTE));
 1805              		.loc 1 243 5 discriminator 1 view .LVU382
 1806 011e 244B     		ldr	r3, .L130+4
 1807 0120 1B68     		ldr	r3, [r3]
 1808 0122 D868     		ldr	r0, [r3, #12]
 1809              	.LVL214:
 243:HW/FLASH/External_Flash/exFlash.c ****     FLASH_EX_CHECK(Flash_EX_Send_Byte(DUMMY_BYTE));
 1810              		.loc 1 243 5 is_stmt 0 discriminator 1 view .LVU383
 1811 0124 04EB8402 		add	r2, r4, r4, lsl #2
 1812 0128 224B     		ldr	r3, .L130+8
 1813 012a 0093     		str	r3, [sp]
 1814 012c F323     		movs	r3, #243
 1815 012e 2449     		ldr	r1, .L130+20
 1816 0130 01EB8202 		add	r2, r1, r2, lsl #2
 1817 0134 2149     		ldr	r1, .L130+16
 1818 0136 FFF7FEFF 		bl	fprintf
 1819              	.LVL215:
 243:HW/FLASH/External_Flash/exFlash.c ****     FLASH_EX_CHECK(Flash_EX_Send_Byte(DUMMY_BYTE));
ARM GAS  C:\Users\86157\AppData\Local\Temp\ccszuV1u.s 			page 39


 1820              		.loc 1 243 5 is_stmt 1 discriminator 1 view .LVU384
 1821 013a BBE7     		b	.L110
 1822              	.LVL216:
 1823              	.L127:
 244:HW/FLASH/External_Flash/exFlash.c ****     uint32_t idx;
 1824              		.loc 1 244 5 discriminator 1 view .LVU385
 1825 013c 1C4B     		ldr	r3, .L130+4
 1826 013e 1B68     		ldr	r3, [r3]
 1827 0140 D868     		ldr	r0, [r3, #12]
 1828              	.LVL217:
 244:HW/FLASH/External_Flash/exFlash.c ****     uint32_t idx;
 1829              		.loc 1 244 5 is_stmt 0 discriminator 1 view .LVU386
 1830 0142 04EB8402 		add	r2, r4, r4, lsl #2
 1831 0146 1B4B     		ldr	r3, .L130+8
 1832 0148 0093     		str	r3, [sp]
 1833 014a F423     		movs	r3, #244
 1834 014c 1C49     		ldr	r1, .L130+20
 1835 014e 01EB8202 		add	r2, r1, r2, lsl #2
 1836 0152 1A49     		ldr	r1, .L130+16
 1837 0154 FFF7FEFF 		bl	fprintf
 1838              	.LVL218:
 244:HW/FLASH/External_Flash/exFlash.c ****     uint32_t idx;
 1839              		.loc 1 244 5 is_stmt 1 discriminator 1 view .LVU387
 1840 0158 ACE7     		b	.L110
 1841              	.LVL219:
 1842              	.L129:
 247:HW/FLASH/External_Flash/exFlash.c ****     }
 1843              		.loc 1 247 9 discriminator 1 view .LVU388
 1844 015a 154B     		ldr	r3, .L130+4
 1845 015c 1B68     		ldr	r3, [r3]
 1846 015e D868     		ldr	r0, [r3, #12]
 1847              	.LVL220:
 247:HW/FLASH/External_Flash/exFlash.c ****     }
 1848              		.loc 1 247 9 is_stmt 0 discriminator 1 view .LVU389
 1849 0160 04EB8402 		add	r2, r4, r4, lsl #2
 1850 0164 134B     		ldr	r3, .L130+8
 1851 0166 0093     		str	r3, [sp]
 1852 0168 F723     		movs	r3, #247
 1853 016a 1549     		ldr	r1, .L130+20
 1854 016c 01EB8202 		add	r2, r1, r2, lsl #2
 1855 0170 1249     		ldr	r1, .L130+16
 1856 0172 FFF7FEFF 		bl	fprintf
 1857              	.LVL221:
 247:HW/FLASH/External_Flash/exFlash.c ****     }
 1858              		.loc 1 247 9 is_stmt 1 discriminator 1 view .LVU390
 1859 0176 9DE7     		b	.L110
 1860              	.LVL222:
 1861              	.L128:
 249:HW/FLASH/External_Flash/exFlash.c ****     FLASH_EX_CHECK(Flash_EX_Synchronize());
 1862              		.loc 1 249 5 view .LVU391
 1863 0178 4FF48051 		mov	r1, #4096
 1864 017c 0B48     		ldr	r0, .L130
 1865              	.LVL223:
 249:HW/FLASH/External_Flash/exFlash.c ****     FLASH_EX_CHECK(Flash_EX_Synchronize());
 1866              		.loc 1 249 5 is_stmt 0 view .LVU392
 1867 017e FFF7FEFF 		bl	GPIO_SetBits
 1868              	.LVL224:
ARM GAS  C:\Users\86157\AppData\Local\Temp\ccszuV1u.s 			page 40


 250:HW/FLASH/External_Flash/exFlash.c **** FLASH_EX_ERR_FLAG:
 1869              		.loc 1 250 5 is_stmt 1 view .LVU393
 1870 0182 FFF7FEFF 		bl	Flash_EX_Synchronize
 1871              	.LVL225:
 250:HW/FLASH/External_Flash/exFlash.c **** FLASH_EX_ERR_FLAG:
 1872              		.loc 1 250 5 view .LVU394
 1873 0186 0446     		mov	r4, r0
 1874 0188 0028     		cmp	r0, #0
 1875 018a 93D0     		beq	.L110
 250:HW/FLASH/External_Flash/exFlash.c **** FLASH_EX_ERR_FLAG:
 1876              		.loc 1 250 5 discriminator 1 view .LVU395
 1877 018c 084B     		ldr	r3, .L130+4
 1878 018e 1B68     		ldr	r3, [r3]
 1879 0190 D868     		ldr	r0, [r3, #12]
 1880              	.LVL226:
 250:HW/FLASH/External_Flash/exFlash.c **** FLASH_EX_ERR_FLAG:
 1881              		.loc 1 250 5 is_stmt 0 discriminator 1 view .LVU396
 1882 0192 04EB8402 		add	r2, r4, r4, lsl #2
 1883 0196 074B     		ldr	r3, .L130+8
 1884 0198 0093     		str	r3, [sp]
 1885 019a FA23     		movs	r3, #250
 1886 019c 0849     		ldr	r1, .L130+20
 1887 019e 01EB8202 		add	r2, r1, r2, lsl #2
 1888 01a2 0649     		ldr	r1, .L130+16
 1889 01a4 FFF7FEFF 		bl	fprintf
 1890              	.LVL227:
 250:HW/FLASH/External_Flash/exFlash.c **** FLASH_EX_ERR_FLAG:
 1891              		.loc 1 250 5 is_stmt 1 discriminator 1 view .LVU397
 1892 01a8 84E7     		b	.L110
 1893              	.L131:
 1894 01aa 00BF     		.align	2
 1895              	.L130:
 1896 01ac 000C0140 		.word	1073810432
 1897 01b0 00000000 		.word	_impure_ptr
 1898 01b4 00000000 		.word	__FUNCTION__.4
 1899 01b8 28000000 		.word	errInfo+40
 1900 01bc 00000000 		.word	.LC1
 1901 01c0 00000000 		.word	errInfo
 1902              		.cfi_endproc
 1903              	.LFE43:
 1905              		.section	.text.Flash_EX_Is_Empty,"ax",%progbits
 1906              		.align	1
 1907              		.global	Flash_EX_Is_Empty
 1908              		.syntax unified
 1909              		.thumb
 1910              		.thumb_func
 1912              	Flash_EX_Is_Empty:
 1913              	.LVL228:
 1914              	.LFB44:
 255:HW/FLASH/External_Flash/exFlash.c **** 
 256:HW/FLASH/External_Flash/exFlash.c **** /* Âà§Êñ≠Âå∫ÂüüÊòØÂê¶‰∏∫Á©∫ */
 257:HW/FLASH/External_Flash/exFlash.c **** Flash_EX_Errors_t Flash_EX_Is_Empty(bool* flag, uint32_t addr, uint32_t size){
 1915              		.loc 1 257 78 view -0
 1916              		.cfi_startproc
 1917              		@ args = 0, pretend = 0, frame = 8
 1918              		@ frame_needed = 0, uses_anonymous_args = 0
 1919              		.loc 1 257 78 is_stmt 0 view .LVU399
ARM GAS  C:\Users\86157\AppData\Local\Temp\ccszuV1u.s 			page 41


 1920 0000 F0B5     		push	{r4, r5, r6, r7, lr}
 1921              	.LCFI43:
 1922              		.cfi_def_cfa_offset 20
 1923              		.cfi_offset 4, -20
 1924              		.cfi_offset 5, -16
 1925              		.cfi_offset 6, -12
 1926              		.cfi_offset 7, -8
 1927              		.cfi_offset 14, -4
 1928 0002 85B0     		sub	sp, sp, #20
 1929              	.LCFI44:
 1930              		.cfi_def_cfa_offset 40
 258:HW/FLASH/External_Flash/exFlash.c ****     Flash_EX_Errors_t err = 0;
 1931              		.loc 1 258 5 is_stmt 1 view .LVU400
 1932              	.LVL229:
 259:HW/FLASH/External_Flash/exFlash.c ****     /* Âà§Êñ≠ÊòØÂê¶Ë∂äÁïå */
 260:HW/FLASH/External_Flash/exFlash.c ****     CHECK_BOUND(addr + size - 1);
 1933              		.loc 1 260 5 view .LVU401
 1934 0004 8B18     		adds	r3, r1, r2
 1935 0006 013B     		subs	r3, r3, #1
 1936 0008 B3F1006F 		cmp	r3, #134217728
 1937 000c 40D2     		bcs	.L147
 1938 000e 0746     		mov	r7, r0
 1939 0010 0E46     		mov	r6, r1
 1940 0012 1546     		mov	r5, r2
 1941              		.loc 1 260 33 discriminator 2 view .LVU402
 261:HW/FLASH/External_Flash/exFlash.c **** 
 262:HW/FLASH/External_Flash/exFlash.c ****     /* ËØªÂèñ */
 263:HW/FLASH/External_Flash/exFlash.c ****     *flag = true;
 1942              		.loc 1 263 5 discriminator 2 view .LVU403
 1943              		.loc 1 263 11 is_stmt 0 discriminator 2 view .LVU404
 1944 0014 0123     		movs	r3, #1
 1945 0016 0370     		strb	r3, [r0]
 264:HW/FLASH/External_Flash/exFlash.c ****     FLASH_EX_CHECK(Flash_EX_Synchronize());
 1946              		.loc 1 264 5 is_stmt 1 discriminator 2 view .LVU405
 1947 0018 FFF7FEFF 		bl	Flash_EX_Synchronize
 1948              	.LVL230:
 1949              		.loc 1 264 5 discriminator 2 view .LVU406
 1950 001c 0446     		mov	r4, r0
 1951 001e 0028     		cmp	r0, #0
 1952 0020 43D1     		bne	.L148
 1953              		.loc 1 264 43 discriminator 2 view .LVU407
 265:HW/FLASH/External_Flash/exFlash.c ****     Flash_EX_CS_Low();
 1954              		.loc 1 265 5 discriminator 2 view .LVU408
 1955 0022 4FF48051 		mov	r1, #4096
 1956 0026 6A48     		ldr	r0, .L156
 1957              	.LVL231:
 1958              		.loc 1 265 5 is_stmt 0 discriminator 2 view .LVU409
 1959 0028 FFF7FEFF 		bl	GPIO_ResetBits
 1960              	.LVL232:
 266:HW/FLASH/External_Flash/exFlash.c ****     FLASH_EX_CHECK(Flash_EX_Send_Byte(0X0B));   // Fast Read
 1961              		.loc 1 266 5 is_stmt 1 discriminator 2 view .LVU410
 1962 002c 0B20     		movs	r0, #11
 1963 002e FFF7FEFF 		bl	Flash_EX_Send_Byte
 1964              	.LVL233:
 1965              		.loc 1 266 5 discriminator 2 view .LVU411
 1966 0032 0446     		mov	r4, r0
 1967 0034 0028     		cmp	r0, #0
ARM GAS  C:\Users\86157\AppData\Local\Temp\ccszuV1u.s 			page 42


 1968 0036 4FD1     		bne	.L149
 1969              		.loc 1 266 45 discriminator 2 view .LVU412
 267:HW/FLASH/External_Flash/exFlash.c ****     FLASH_EX_CHECK(Flash_EX_Send_Byte((addr & 0XFF0000) >> 16));
 1970              		.loc 1 267 5 discriminator 2 view .LVU413
 1971 0038 C6F30740 		ubfx	r0, r6, #16, #8
 1972              	.LVL234:
 1973              		.loc 1 267 5 is_stmt 0 discriminator 2 view .LVU414
 1974 003c FFF7FEFF 		bl	Flash_EX_Send_Byte
 1975              	.LVL235:
 1976              		.loc 1 267 5 is_stmt 1 discriminator 2 view .LVU415
 1977 0040 0446     		mov	r4, r0
 1978 0042 0028     		cmp	r0, #0
 1979 0044 58D1     		bne	.L150
 1980              		.loc 1 267 64 discriminator 2 view .LVU416
 268:HW/FLASH/External_Flash/exFlash.c ****     FLASH_EX_CHECK(Flash_EX_Send_Byte((addr & 0X00FF00) >>  8));
 1981              		.loc 1 268 5 discriminator 2 view .LVU417
 1982 0046 C6F30720 		ubfx	r0, r6, #8, #8
 1983              	.LVL236:
 1984              		.loc 1 268 5 is_stmt 0 discriminator 2 view .LVU418
 1985 004a FFF7FEFF 		bl	Flash_EX_Send_Byte
 1986              	.LVL237:
 1987              		.loc 1 268 5 is_stmt 1 discriminator 2 view .LVU419
 1988 004e 0446     		mov	r4, r0
 1989 0050 0028     		cmp	r0, #0
 1990 0052 61D1     		bne	.L151
 1991              		.loc 1 268 64 discriminator 2 view .LVU420
 269:HW/FLASH/External_Flash/exFlash.c ****     FLASH_EX_CHECK(Flash_EX_Send_Byte((addr & 0X0000FF) >>  0));
 1992              		.loc 1 269 5 discriminator 2 view .LVU421
 1993 0054 F0B2     		uxtb	r0, r6
 1994              	.LVL238:
 1995              		.loc 1 269 5 is_stmt 0 discriminator 2 view .LVU422
 1996 0056 FFF7FEFF 		bl	Flash_EX_Send_Byte
 1997              	.LVL239:
 1998              		.loc 1 269 5 is_stmt 1 discriminator 2 view .LVU423
 1999 005a 0446     		mov	r4, r0
 2000 005c 0028     		cmp	r0, #0
 2001 005e 6BD1     		bne	.L152
 2002              		.loc 1 269 64 discriminator 2 view .LVU424
 270:HW/FLASH/External_Flash/exFlash.c ****     FLASH_EX_CHECK(Flash_EX_Send_Byte(DUMMY_BYTE));
 2003              		.loc 1 270 5 discriminator 2 view .LVU425
 2004 0060 FF20     		movs	r0, #255
 2005              	.LVL240:
 2006              		.loc 1 270 5 is_stmt 0 discriminator 2 view .LVU426
 2007 0062 FFF7FEFF 		bl	Flash_EX_Send_Byte
 2008              	.LVL241:
 2009              		.loc 1 270 5 is_stmt 1 discriminator 2 view .LVU427
 2010 0066 0446     		mov	r4, r0
 2011 0068 0028     		cmp	r0, #0
 2012 006a 75D1     		bne	.L153
 271:HW/FLASH/External_Flash/exFlash.c ****     uint32_t idx;
 272:HW/FLASH/External_Flash/exFlash.c ****     uint8_t buffer;
 273:HW/FLASH/External_Flash/exFlash.c ****     for(idx = 0; idx < size; ++idx){
 2013              		.loc 1 273 13 is_stmt 0 view .LVU428
 2014 006c 0026     		movs	r6, #0
 2015              	.LVL242:
 2016              	.L140:
 2017              		.loc 1 273 22 is_stmt 1 discriminator 1 view .LVU429
ARM GAS  C:\Users\86157\AppData\Local\Temp\ccszuV1u.s 			page 43


 2018 006e AE42     		cmp	r6, r5
 2019 0070 80F09480 		bcs	.L143
 274:HW/FLASH/External_Flash/exFlash.c ****         FLASH_EX_CHECK(Flash_EX_Recieve_Byte(&buffer));
 2020              		.loc 1 274 9 view .LVU430
 2021 0074 0DF10F00 		add	r0, sp, #15
 2022              	.LVL243:
 2023              		.loc 1 274 9 is_stmt 0 view .LVU431
 2024 0078 FFF7FEFF 		bl	Flash_EX_Recieve_Byte
 2025              	.LVL244:
 2026              		.loc 1 274 9 is_stmt 1 view .LVU432
 2027 007c 0446     		mov	r4, r0
 2028 007e 0028     		cmp	r0, #0
 2029 0080 7AD1     		bne	.L154
 2030              		.loc 1 274 55 discriminator 2 view .LVU433
 275:HW/FLASH/External_Flash/exFlash.c ****         if(buffer != 0XFF){
 2031              		.loc 1 275 9 discriminator 2 view .LVU434
 2032              		.loc 1 275 19 is_stmt 0 discriminator 2 view .LVU435
 2033 0082 9DF80F30 		ldrb	r3, [sp, #15]	@ zero_extendqisi2
 2034              		.loc 1 275 11 discriminator 2 view .LVU436
 2035 0086 FF2B     		cmp	r3, #255
 2036 0088 40F08680 		bne	.L155
 273:HW/FLASH/External_Flash/exFlash.c ****         FLASH_EX_CHECK(Flash_EX_Recieve_Byte(&buffer));
 2037              		.loc 1 273 30 is_stmt 1 discriminator 2 view .LVU437
 2038 008c 0136     		adds	r6, r6, #1
 2039              	.LVL245:
 273:HW/FLASH/External_Flash/exFlash.c ****         FLASH_EX_CHECK(Flash_EX_Recieve_Byte(&buffer));
 2040              		.loc 1 273 30 is_stmt 0 discriminator 2 view .LVU438
 2041 008e EEE7     		b	.L140
 2042              	.LVL246:
 2043              	.L147:
 260:HW/FLASH/External_Flash/exFlash.c **** 
 2044              		.loc 1 260 5 is_stmt 1 discriminator 1 view .LVU439
 260:HW/FLASH/External_Flash/exFlash.c **** 
 2045              		.loc 1 260 5 discriminator 1 view .LVU440
 2046 0090 504B     		ldr	r3, .L156+4
 2047 0092 1B68     		ldr	r3, [r3]
 2048 0094 D868     		ldr	r0, [r3, #12]
 2049              	.LVL247:
 260:HW/FLASH/External_Flash/exFlash.c **** 
 2050              		.loc 1 260 5 is_stmt 0 discriminator 1 view .LVU441
 2051 0096 504B     		ldr	r3, .L156+8
 2052 0098 0093     		str	r3, [sp]
 2053 009a 4FF48273 		mov	r3, #260
 2054 009e 4F4A     		ldr	r2, .L156+12
 2055              	.LVL248:
 260:HW/FLASH/External_Flash/exFlash.c **** 
 2056              		.loc 1 260 5 discriminator 1 view .LVU442
 2057 00a0 4F49     		ldr	r1, .L156+16
 2058              	.LVL249:
 260:HW/FLASH/External_Flash/exFlash.c **** 
 2059              		.loc 1 260 5 discriminator 1 view .LVU443
 2060 00a2 FFF7FEFF 		bl	fprintf
 2061              	.LVL250:
 260:HW/FLASH/External_Flash/exFlash.c **** 
 2062              		.loc 1 260 5 is_stmt 1 discriminator 1 view .LVU444
 2063 00a6 0224     		movs	r4, #2
 2064 00a8 0EE0     		b	.L134
ARM GAS  C:\Users\86157\AppData\Local\Temp\ccszuV1u.s 			page 44


 2065              	.LVL251:
 2066              	.L148:
 264:HW/FLASH/External_Flash/exFlash.c ****     Flash_EX_CS_Low();
 2067              		.loc 1 264 5 discriminator 1 view .LVU445
 2068 00aa 4A4B     		ldr	r3, .L156+4
 2069 00ac 1B68     		ldr	r3, [r3]
 2070 00ae D868     		ldr	r0, [r3, #12]
 2071              	.LVL252:
 264:HW/FLASH/External_Flash/exFlash.c ****     Flash_EX_CS_Low();
 2072              		.loc 1 264 5 is_stmt 0 discriminator 1 view .LVU446
 2073 00b0 04EB8402 		add	r2, r4, r4, lsl #2
 2074 00b4 484B     		ldr	r3, .L156+8
 2075 00b6 0093     		str	r3, [sp]
 2076 00b8 4FF48473 		mov	r3, #264
 2077 00bc 4949     		ldr	r1, .L156+20
 2078 00be 01EB8202 		add	r2, r1, r2, lsl #2
 2079 00c2 4749     		ldr	r1, .L156+16
 2080 00c4 FFF7FEFF 		bl	fprintf
 2081              	.LVL253:
 264:HW/FLASH/External_Flash/exFlash.c ****     Flash_EX_CS_Low();
 2082              		.loc 1 264 5 is_stmt 1 discriminator 1 view .LVU447
 2083              	.L134:
 276:HW/FLASH/External_Flash/exFlash.c ****             *flag = false;
 277:HW/FLASH/External_Flash/exFlash.c ****             break;
 278:HW/FLASH/External_Flash/exFlash.c ****         }
 279:HW/FLASH/External_Flash/exFlash.c ****     }
 280:HW/FLASH/External_Flash/exFlash.c ****     Flash_EX_CS_High();
 281:HW/FLASH/External_Flash/exFlash.c ****     FLASH_EX_CHECK(Flash_EX_Synchronize());
 2084              		.loc 1 281 43 discriminator 3 view .LVU448
 282:HW/FLASH/External_Flash/exFlash.c **** FLASH_EX_ERR_FLAG:
 283:HW/FLASH/External_Flash/exFlash.c ****     Flash_EX_CS_High();
 2085              		.loc 1 283 5 discriminator 3 view .LVU449
 2086 00c8 4FF48051 		mov	r1, #4096
 2087 00cc 4048     		ldr	r0, .L156
 2088 00ce FFF7FEFF 		bl	GPIO_SetBits
 2089              	.LVL254:
 284:HW/FLASH/External_Flash/exFlash.c ****     return err;
 2090              		.loc 1 284 5 discriminator 3 view .LVU450
 285:HW/FLASH/External_Flash/exFlash.c **** }
 2091              		.loc 1 285 1 is_stmt 0 discriminator 3 view .LVU451
 2092 00d2 2046     		mov	r0, r4
 2093 00d4 05B0     		add	sp, sp, #20
 2094              	.LCFI45:
 2095              		.cfi_remember_state
 2096              		.cfi_def_cfa_offset 20
 2097              		@ sp needed
 2098 00d6 F0BD     		pop	{r4, r5, r6, r7, pc}
 2099              	.LVL255:
 2100              	.L149:
 2101              	.LCFI46:
 2102              		.cfi_restore_state
 266:HW/FLASH/External_Flash/exFlash.c ****     FLASH_EX_CHECK(Flash_EX_Send_Byte((addr & 0XFF0000) >> 16));
 2103              		.loc 1 266 5 is_stmt 1 discriminator 1 view .LVU452
 2104 00d8 3E4B     		ldr	r3, .L156+4
 2105 00da 1B68     		ldr	r3, [r3]
 2106 00dc D868     		ldr	r0, [r3, #12]
 2107              	.LVL256:
ARM GAS  C:\Users\86157\AppData\Local\Temp\ccszuV1u.s 			page 45


 266:HW/FLASH/External_Flash/exFlash.c ****     FLASH_EX_CHECK(Flash_EX_Send_Byte((addr & 0XFF0000) >> 16));
 2108              		.loc 1 266 5 is_stmt 0 discriminator 1 view .LVU453
 2109 00de 04EB8402 		add	r2, r4, r4, lsl #2
 2110 00e2 3D4B     		ldr	r3, .L156+8
 2111 00e4 0093     		str	r3, [sp]
 2112 00e6 4FF48573 		mov	r3, #266
 2113 00ea 3E49     		ldr	r1, .L156+20
 2114 00ec 01EB8202 		add	r2, r1, r2, lsl #2
 2115 00f0 3B49     		ldr	r1, .L156+16
 2116 00f2 FFF7FEFF 		bl	fprintf
 2117              	.LVL257:
 266:HW/FLASH/External_Flash/exFlash.c ****     FLASH_EX_CHECK(Flash_EX_Send_Byte((addr & 0XFF0000) >> 16));
 2118              		.loc 1 266 5 is_stmt 1 discriminator 1 view .LVU454
 2119 00f6 E7E7     		b	.L134
 2120              	.LVL258:
 2121              	.L150:
 267:HW/FLASH/External_Flash/exFlash.c ****     FLASH_EX_CHECK(Flash_EX_Send_Byte((addr & 0X00FF00) >>  8));
 2122              		.loc 1 267 5 discriminator 1 view .LVU455
 2123 00f8 364B     		ldr	r3, .L156+4
 2124 00fa 1B68     		ldr	r3, [r3]
 2125 00fc D868     		ldr	r0, [r3, #12]
 2126              	.LVL259:
 267:HW/FLASH/External_Flash/exFlash.c ****     FLASH_EX_CHECK(Flash_EX_Send_Byte((addr & 0X00FF00) >>  8));
 2127              		.loc 1 267 5 is_stmt 0 discriminator 1 view .LVU456
 2128 00fe 04EB8402 		add	r2, r4, r4, lsl #2
 2129 0102 354B     		ldr	r3, .L156+8
 2130 0104 0093     		str	r3, [sp]
 2131 0106 40F20B13 		movw	r3, #267
 2132 010a 3649     		ldr	r1, .L156+20
 2133 010c 01EB8202 		add	r2, r1, r2, lsl #2
 2134 0110 3349     		ldr	r1, .L156+16
 2135 0112 FFF7FEFF 		bl	fprintf
 2136              	.LVL260:
 267:HW/FLASH/External_Flash/exFlash.c ****     FLASH_EX_CHECK(Flash_EX_Send_Byte((addr & 0X00FF00) >>  8));
 2137              		.loc 1 267 5 is_stmt 1 discriminator 1 view .LVU457
 2138 0116 D7E7     		b	.L134
 2139              	.LVL261:
 2140              	.L151:
 268:HW/FLASH/External_Flash/exFlash.c ****     FLASH_EX_CHECK(Flash_EX_Send_Byte((addr & 0X0000FF) >>  0));
 2141              		.loc 1 268 5 discriminator 1 view .LVU458
 2142 0118 2E4B     		ldr	r3, .L156+4
 2143 011a 1B68     		ldr	r3, [r3]
 2144 011c D868     		ldr	r0, [r3, #12]
 2145              	.LVL262:
 268:HW/FLASH/External_Flash/exFlash.c ****     FLASH_EX_CHECK(Flash_EX_Send_Byte((addr & 0X0000FF) >>  0));
 2146              		.loc 1 268 5 is_stmt 0 discriminator 1 view .LVU459
 2147 011e 04EB8402 		add	r2, r4, r4, lsl #2
 2148 0122 2D4B     		ldr	r3, .L156+8
 2149 0124 0093     		str	r3, [sp]
 2150 0126 4FF48673 		mov	r3, #268
 2151 012a 2E49     		ldr	r1, .L156+20
 2152 012c 01EB8202 		add	r2, r1, r2, lsl #2
 2153 0130 2B49     		ldr	r1, .L156+16
 2154 0132 FFF7FEFF 		bl	fprintf
 2155              	.LVL263:
 268:HW/FLASH/External_Flash/exFlash.c ****     FLASH_EX_CHECK(Flash_EX_Send_Byte((addr & 0X0000FF) >>  0));
 2156              		.loc 1 268 5 is_stmt 1 discriminator 1 view .LVU460
ARM GAS  C:\Users\86157\AppData\Local\Temp\ccszuV1u.s 			page 46


 2157 0136 C7E7     		b	.L134
 2158              	.LVL264:
 2159              	.L152:
 269:HW/FLASH/External_Flash/exFlash.c ****     FLASH_EX_CHECK(Flash_EX_Send_Byte(DUMMY_BYTE));
 2160              		.loc 1 269 5 discriminator 1 view .LVU461
 2161 0138 264B     		ldr	r3, .L156+4
 2162 013a 1B68     		ldr	r3, [r3]
 2163 013c D868     		ldr	r0, [r3, #12]
 2164              	.LVL265:
 269:HW/FLASH/External_Flash/exFlash.c ****     FLASH_EX_CHECK(Flash_EX_Send_Byte(DUMMY_BYTE));
 2165              		.loc 1 269 5 is_stmt 0 discriminator 1 view .LVU462
 2166 013e 04EB8402 		add	r2, r4, r4, lsl #2
 2167 0142 254B     		ldr	r3, .L156+8
 2168 0144 0093     		str	r3, [sp]
 2169 0146 40F20D13 		movw	r3, #269
 2170 014a 2649     		ldr	r1, .L156+20
 2171 014c 01EB8202 		add	r2, r1, r2, lsl #2
 2172 0150 2349     		ldr	r1, .L156+16
 2173 0152 FFF7FEFF 		bl	fprintf
 2174              	.LVL266:
 269:HW/FLASH/External_Flash/exFlash.c ****     FLASH_EX_CHECK(Flash_EX_Send_Byte(DUMMY_BYTE));
 2175              		.loc 1 269 5 is_stmt 1 discriminator 1 view .LVU463
 2176 0156 B7E7     		b	.L134
 2177              	.LVL267:
 2178              	.L153:
 270:HW/FLASH/External_Flash/exFlash.c ****     uint32_t idx;
 2179              		.loc 1 270 5 discriminator 1 view .LVU464
 2180 0158 1E4B     		ldr	r3, .L156+4
 2181 015a 1B68     		ldr	r3, [r3]
 2182 015c D868     		ldr	r0, [r3, #12]
 2183              	.LVL268:
 270:HW/FLASH/External_Flash/exFlash.c ****     uint32_t idx;
 2184              		.loc 1 270 5 is_stmt 0 discriminator 1 view .LVU465
 2185 015e 04EB8402 		add	r2, r4, r4, lsl #2
 2186 0162 1D4B     		ldr	r3, .L156+8
 2187 0164 0093     		str	r3, [sp]
 2188 0166 4FF48773 		mov	r3, #270
 2189 016a 1E49     		ldr	r1, .L156+20
 2190 016c 01EB8202 		add	r2, r1, r2, lsl #2
 2191 0170 1B49     		ldr	r1, .L156+16
 2192 0172 FFF7FEFF 		bl	fprintf
 2193              	.LVL269:
 270:HW/FLASH/External_Flash/exFlash.c ****     uint32_t idx;
 2194              		.loc 1 270 5 is_stmt 1 discriminator 1 view .LVU466
 2195 0176 A7E7     		b	.L134
 2196              	.LVL270:
 2197              	.L154:
 274:HW/FLASH/External_Flash/exFlash.c ****         if(buffer != 0XFF){
 2198              		.loc 1 274 9 discriminator 1 view .LVU467
 2199 0178 164B     		ldr	r3, .L156+4
 2200 017a 1B68     		ldr	r3, [r3]
 2201 017c D868     		ldr	r0, [r3, #12]
 2202              	.LVL271:
 274:HW/FLASH/External_Flash/exFlash.c ****         if(buffer != 0XFF){
 2203              		.loc 1 274 9 is_stmt 0 discriminator 1 view .LVU468
 2204 017e 04EB8402 		add	r2, r4, r4, lsl #2
 2205 0182 154B     		ldr	r3, .L156+8
ARM GAS  C:\Users\86157\AppData\Local\Temp\ccszuV1u.s 			page 47


 2206 0184 0093     		str	r3, [sp]
 2207 0186 4FF48973 		mov	r3, #274
 2208 018a 1649     		ldr	r1, .L156+20
 2209 018c 01EB8202 		add	r2, r1, r2, lsl #2
 2210 0190 1349     		ldr	r1, .L156+16
 2211 0192 FFF7FEFF 		bl	fprintf
 2212              	.LVL272:
 274:HW/FLASH/External_Flash/exFlash.c ****         if(buffer != 0XFF){
 2213              		.loc 1 274 9 is_stmt 1 discriminator 1 view .LVU469
 2214 0196 97E7     		b	.L134
 2215              	.LVL273:
 2216              	.L155:
 276:HW/FLASH/External_Flash/exFlash.c ****             break;
 2217              		.loc 1 276 13 view .LVU470
 276:HW/FLASH/External_Flash/exFlash.c ****             break;
 2218              		.loc 1 276 19 is_stmt 0 view .LVU471
 2219 0198 0023     		movs	r3, #0
 2220 019a 3B70     		strb	r3, [r7]
 277:HW/FLASH/External_Flash/exFlash.c ****         }
 2221              		.loc 1 277 13 is_stmt 1 view .LVU472
 2222              	.L143:
 280:HW/FLASH/External_Flash/exFlash.c ****     FLASH_EX_CHECK(Flash_EX_Synchronize());
 2223              		.loc 1 280 5 view .LVU473
 2224 019c 4FF48051 		mov	r1, #4096
 2225 01a0 0B48     		ldr	r0, .L156
 2226              	.LVL274:
 280:HW/FLASH/External_Flash/exFlash.c ****     FLASH_EX_CHECK(Flash_EX_Synchronize());
 2227              		.loc 1 280 5 is_stmt 0 view .LVU474
 2228 01a2 FFF7FEFF 		bl	GPIO_SetBits
 2229              	.LVL275:
 281:HW/FLASH/External_Flash/exFlash.c **** FLASH_EX_ERR_FLAG:
 2230              		.loc 1 281 5 is_stmt 1 view .LVU475
 2231 01a6 FFF7FEFF 		bl	Flash_EX_Synchronize
 2232              	.LVL276:
 281:HW/FLASH/External_Flash/exFlash.c **** FLASH_EX_ERR_FLAG:
 2233              		.loc 1 281 5 view .LVU476
 2234 01aa 0446     		mov	r4, r0
 2235 01ac 0028     		cmp	r0, #0
 2236 01ae 8BD0     		beq	.L134
 281:HW/FLASH/External_Flash/exFlash.c **** FLASH_EX_ERR_FLAG:
 2237              		.loc 1 281 5 discriminator 1 view .LVU477
 2238 01b0 084B     		ldr	r3, .L156+4
 2239 01b2 1B68     		ldr	r3, [r3]
 2240 01b4 D868     		ldr	r0, [r3, #12]
 2241              	.LVL277:
 281:HW/FLASH/External_Flash/exFlash.c **** FLASH_EX_ERR_FLAG:
 2242              		.loc 1 281 5 is_stmt 0 discriminator 1 view .LVU478
 2243 01b6 04EB8402 		add	r2, r4, r4, lsl #2
 2244 01ba 074B     		ldr	r3, .L156+8
 2245 01bc 0093     		str	r3, [sp]
 2246 01be 40F21913 		movw	r3, #281
 2247 01c2 0849     		ldr	r1, .L156+20
 2248 01c4 01EB8202 		add	r2, r1, r2, lsl #2
 2249 01c8 0549     		ldr	r1, .L156+16
 2250 01ca FFF7FEFF 		bl	fprintf
 2251              	.LVL278:
 281:HW/FLASH/External_Flash/exFlash.c **** FLASH_EX_ERR_FLAG:
ARM GAS  C:\Users\86157\AppData\Local\Temp\ccszuV1u.s 			page 48


 2252              		.loc 1 281 5 is_stmt 1 discriminator 1 view .LVU479
 2253 01ce 7BE7     		b	.L134
 2254              	.L157:
 2255              		.align	2
 2256              	.L156:
 2257 01d0 000C0140 		.word	1073810432
 2258 01d4 00000000 		.word	_impure_ptr
 2259 01d8 00000000 		.word	__FUNCTION__.3
 2260 01dc 28000000 		.word	errInfo+40
 2261 01e0 00000000 		.word	.LC1
 2262 01e4 00000000 		.word	errInfo
 2263              		.cfi_endproc
 2264              	.LFE44:
 2266              		.section	.text.Flash_EX_Erase_NonEmpty,"ax",%progbits
 2267              		.align	1
 2268              		.global	Flash_EX_Erase_NonEmpty
 2269              		.syntax unified
 2270              		.thumb
 2271              		.thumb_func
 2273              	Flash_EX_Erase_NonEmpty:
 2274              	.LVL279:
 2275              	.LFB45:
 286:HW/FLASH/External_Flash/exFlash.c **** 
 287:HW/FLASH/External_Flash/exFlash.c **** /* Êì¶Èô§ÈùûÁ©∫Âå∫Âüü */
 288:HW/FLASH/External_Flash/exFlash.c **** Flash_EX_Errors_t Flash_EX_Erase_NonEmpty(uint32_t addr, uint32_t size){
 2276              		.loc 1 288 72 view -0
 2277              		.cfi_startproc
 2278              		@ args = 0, pretend = 0, frame = 8
 2279              		@ frame_needed = 0, uses_anonymous_args = 0
 2280              		.loc 1 288 72 is_stmt 0 view .LVU481
 2281 0000 2DE9F043 		push	{r4, r5, r6, r7, r8, r9, lr}
 2282              	.LCFI47:
 2283              		.cfi_def_cfa_offset 28
 2284              		.cfi_offset 4, -28
 2285              		.cfi_offset 5, -24
 2286              		.cfi_offset 6, -20
 2287              		.cfi_offset 7, -16
 2288              		.cfi_offset 8, -12
 2289              		.cfi_offset 9, -8
 2290              		.cfi_offset 14, -4
 2291 0004 85B0     		sub	sp, sp, #20
 2292              	.LCFI48:
 2293              		.cfi_def_cfa_offset 48
 289:HW/FLASH/External_Flash/exFlash.c ****     Flash_EX_Errors_t err = 0;
 2294              		.loc 1 289 5 is_stmt 1 view .LVU482
 2295              	.LVL280:
 290:HW/FLASH/External_Flash/exFlash.c ****     /* Âà§Êñ≠ÊòØÂê¶Ë∂äÁïå */
 291:HW/FLASH/External_Flash/exFlash.c ****     CHECK_BOUND(addr + size - 1);
 2296              		.loc 1 291 5 view .LVU483
 2297 0006 4318     		adds	r3, r0, r1
 2298 0008 013B     		subs	r3, r3, #1
 2299 000a B3F1006F 		cmp	r3, #134217728
 2300 000e 1BD2     		bcs	.L168
 2301 0010 0446     		mov	r4, r0
 2302 0012 0E46     		mov	r6, r1
 2303              		.loc 1 291 33 discriminator 2 view .LVU484
 292:HW/FLASH/External_Flash/exFlash.c ****     
ARM GAS  C:\Users\86157\AppData\Local\Temp\ccszuV1u.s 			page 49


 293:HW/FLASH/External_Flash/exFlash.c ****     /* ÂÖàÊì¶Èô§Âà∞sectorÂØπÈΩê */
 294:HW/FLASH/External_Flash/exFlash.c ****     bool flag;
 2304              		.loc 1 294 5 discriminator 2 view .LVU485
 295:HW/FLASH/External_Flash/exFlash.c ****     uint32_t count = MIN(4096 - addr % 4096, size);
 2305              		.loc 1 295 5 discriminator 2 view .LVU486
 2306              		.loc 1 295 22 is_stmt 0 discriminator 2 view .LVU487
 2307 0014 C0F30B05 		ubfx	r5, r0, #0, #12
 2308 0018 C5F58055 		rsb	r5, r5, #4096
 2309              		.loc 1 295 14 discriminator 2 view .LVU488
 2310 001c 8D42     		cmp	r5, r1
 2311 001e 28BF     		it	cs
 2312 0020 0D46     		movcs	r5, r1
 2313              	.LVL281:
 296:HW/FLASH/External_Flash/exFlash.c ****     uint32_t idx;
 2314              		.loc 1 296 5 is_stmt 1 discriminator 2 view .LVU489
 297:HW/FLASH/External_Flash/exFlash.c ****     FLASH_EX_CHECK(Flash_EX_Is_Empty(&flag, addr, count));
 2315              		.loc 1 297 5 discriminator 2 view .LVU490
 2316 0022 2A46     		mov	r2, r5
 2317 0024 0146     		mov	r1, r0
 2318              	.LVL282:
 2319              		.loc 1 297 5 is_stmt 0 discriminator 2 view .LVU491
 2320 0026 0DF10F00 		add	r0, sp, #15
 2321              	.LVL283:
 2322              		.loc 1 297 5 discriminator 2 view .LVU492
 2323 002a FFF7FEFF 		bl	Flash_EX_Is_Empty
 2324              	.LVL284:
 2325              		.loc 1 297 5 is_stmt 1 discriminator 2 view .LVU493
 2326 002e 8046     		mov	r8, r0
 2327 0030 C0B9     		cbnz	r0, .L169
 2328              		.loc 1 297 58 discriminator 2 view .LVU494
 298:HW/FLASH/External_Flash/exFlash.c ****     if(!flag) 
 2329              		.loc 1 298 5 discriminator 2 view .LVU495
 2330              		.loc 1 298 8 is_stmt 0 discriminator 2 view .LVU496
 2331 0032 9DF80F30 		ldrb	r3, [sp, #15]	@ zero_extendqisi2
 2332              		.loc 1 298 7 discriminator 2 view .LVU497
 2333 0036 2BB3     		cbz	r3, .L170
 2334              	.L162:
 2335              	.LVL285:
 299:HW/FLASH/External_Flash/exFlash.c ****         FLASH_EX_CHECK(Flash_EX_Erase_Sector(addr));
 2336              		.loc 1 299 52 is_stmt 1 discriminator 2 view .LVU498
 300:HW/FLASH/External_Flash/exFlash.c ****     addr += count;
 2337              		.loc 1 300 5 discriminator 2 view .LVU499
 2338              		.loc 1 300 10 is_stmt 0 discriminator 2 view .LVU500
 2339 0038 2C44     		add	r4, r4, r5
 2340              	.LVL286:
 301:HW/FLASH/External_Flash/exFlash.c ****     size -= count;
 2341              		.loc 1 301 5 is_stmt 1 discriminator 2 view .LVU501
 2342              		.loc 1 301 10 is_stmt 0 discriminator 2 view .LVU502
 2343 003a 761B     		subs	r6, r6, r5
 2344              	.LVL287:
 302:HW/FLASH/External_Flash/exFlash.c ****     /* ÂÜçÊääÂâ©‰∏ãÁöÑÊï∞ÊçÆÊì¶Èô§ */
 303:HW/FLASH/External_Flash/exFlash.c ****     uint32_t sectors = (size + 4095) / 4096;
 2345              		.loc 1 303 5 is_stmt 1 discriminator 2 view .LVU503
 2346              		.loc 1 303 30 is_stmt 0 discriminator 2 view .LVU504
 2347 003c 06F6FF79 		addw	r9, r6, #4095
 2348              		.loc 1 303 14 discriminator 2 view .LVU505
 2349 0040 4FEA1939 		lsr	r9, r9, #12
ARM GAS  C:\Users\86157\AppData\Local\Temp\ccszuV1u.s 			page 50


 2350              	.LVL288:
 304:HW/FLASH/External_Flash/exFlash.c ****     for(idx = 0; idx < sectors; ++idx){
 2351              		.loc 1 304 5 is_stmt 1 discriminator 2 view .LVU506
 2352              		.loc 1 304 13 is_stmt 0 discriminator 2 view .LVU507
 2353 0044 0027     		movs	r7, #0
 2354              		.loc 1 304 5 discriminator 2 view .LVU508
 2355 0046 4EE0     		b	.L163
 2356              	.LVL289:
 2357              	.L168:
 291:HW/FLASH/External_Flash/exFlash.c ****     
 2358              		.loc 1 291 5 is_stmt 1 discriminator 1 view .LVU509
 291:HW/FLASH/External_Flash/exFlash.c ****     
 2359              		.loc 1 291 5 discriminator 1 view .LVU510
 2360 0048 3C4B     		ldr	r3, .L172
 2361 004a 1B68     		ldr	r3, [r3]
 2362 004c D868     		ldr	r0, [r3, #12]
 2363              	.LVL290:
 291:HW/FLASH/External_Flash/exFlash.c ****     
 2364              		.loc 1 291 5 is_stmt 0 discriminator 1 view .LVU511
 2365 004e 3C4B     		ldr	r3, .L172+4
 2366 0050 0093     		str	r3, [sp]
 2367 0052 40F22313 		movw	r3, #291
 2368 0056 3B4A     		ldr	r2, .L172+8
 2369 0058 3B49     		ldr	r1, .L172+12
 2370              	.LVL291:
 291:HW/FLASH/External_Flash/exFlash.c ****     
 2371              		.loc 1 291 5 discriminator 1 view .LVU512
 2372 005a FFF7FEFF 		bl	fprintf
 2373              	.LVL292:
 291:HW/FLASH/External_Flash/exFlash.c ****     
 2374              		.loc 1 291 5 is_stmt 1 discriminator 1 view .LVU513
 2375 005e 4FF00208 		mov	r8, #2
 2376 0062 34E0     		b	.L160
 2377              	.LVL293:
 2378              	.L169:
 297:HW/FLASH/External_Flash/exFlash.c ****     if(!flag) 
 2379              		.loc 1 297 5 discriminator 1 view .LVU514
 2380 0064 354B     		ldr	r3, .L172
 2381 0066 1B68     		ldr	r3, [r3]
 2382 0068 D868     		ldr	r0, [r3, #12]
 2383              	.LVL294:
 297:HW/FLASH/External_Flash/exFlash.c ****     if(!flag) 
 2384              		.loc 1 297 5 is_stmt 0 discriminator 1 view .LVU515
 2385 006a 08EB8802 		add	r2, r8, r8, lsl #2
 2386 006e 344B     		ldr	r3, .L172+4
 2387 0070 0093     		str	r3, [sp]
 2388 0072 40F22913 		movw	r3, #297
 2389 0076 3549     		ldr	r1, .L172+16
 2390 0078 01EB8202 		add	r2, r1, r2, lsl #2
 2391 007c 3249     		ldr	r1, .L172+12
 2392 007e FFF7FEFF 		bl	fprintf
 2393              	.LVL295:
 297:HW/FLASH/External_Flash/exFlash.c ****     if(!flag) 
 2394              		.loc 1 297 5 is_stmt 1 discriminator 1 view .LVU516
 2395 0082 24E0     		b	.L160
 2396              	.LVL296:
 2397              	.L170:
ARM GAS  C:\Users\86157\AppData\Local\Temp\ccszuV1u.s 			page 51


 299:HW/FLASH/External_Flash/exFlash.c ****     addr += count;
 2398              		.loc 1 299 9 view .LVU517
 2399 0084 2046     		mov	r0, r4
 2400              	.LVL297:
 299:HW/FLASH/External_Flash/exFlash.c ****     addr += count;
 2401              		.loc 1 299 9 is_stmt 0 view .LVU518
 2402 0086 FFF7FEFF 		bl	Flash_EX_Erase_Sector
 2403              	.LVL298:
 299:HW/FLASH/External_Flash/exFlash.c ****     addr += count;
 2404              		.loc 1 299 9 is_stmt 1 view .LVU519
 2405 008a 8046     		mov	r8, r0
 2406 008c 0028     		cmp	r0, #0
 2407 008e D3D0     		beq	.L162
 299:HW/FLASH/External_Flash/exFlash.c ****     addr += count;
 2408              		.loc 1 299 9 discriminator 1 view .LVU520
 2409 0090 2A4B     		ldr	r3, .L172
 2410 0092 1B68     		ldr	r3, [r3]
 2411 0094 D868     		ldr	r0, [r3, #12]
 2412              	.LVL299:
 299:HW/FLASH/External_Flash/exFlash.c ****     addr += count;
 2413              		.loc 1 299 9 is_stmt 0 discriminator 1 view .LVU521
 2414 0096 08EB8802 		add	r2, r8, r8, lsl #2
 2415 009a 294B     		ldr	r3, .L172+4
 2416 009c 0093     		str	r3, [sp]
 2417 009e 40F22B13 		movw	r3, #299
 2418 00a2 2A49     		ldr	r1, .L172+16
 2419 00a4 01EB8202 		add	r2, r1, r2, lsl #2
 2420 00a8 2749     		ldr	r1, .L172+12
 2421 00aa FFF7FEFF 		bl	fprintf
 2422              	.LVL300:
 299:HW/FLASH/External_Flash/exFlash.c ****     addr += count;
 2423              		.loc 1 299 9 is_stmt 1 discriminator 1 view .LVU522
 2424 00ae 0EE0     		b	.L160
 2425              	.LVL301:
 2426              	.L171:
 305:HW/FLASH/External_Flash/exFlash.c ****         count = MIN(size, 4096);
 306:HW/FLASH/External_Flash/exFlash.c ****         FLASH_EX_CHECK(Flash_EX_Is_Empty(&flag, addr, count));
 2427              		.loc 1 306 9 discriminator 1 view .LVU523
 2428 00b0 224B     		ldr	r3, .L172
 2429 00b2 1B68     		ldr	r3, [r3]
 2430 00b4 D868     		ldr	r0, [r3, #12]
 2431              	.LVL302:
 2432              		.loc 1 306 9 is_stmt 0 discriminator 1 view .LVU524
 2433 00b6 08EB8802 		add	r2, r8, r8, lsl #2
 2434 00ba 214B     		ldr	r3, .L172+4
 2435 00bc 0093     		str	r3, [sp]
 2436 00be 4FF49973 		mov	r3, #306
 2437 00c2 2249     		ldr	r1, .L172+16
 2438 00c4 01EB8202 		add	r2, r1, r2, lsl #2
 2439 00c8 1F49     		ldr	r1, .L172+12
 2440 00ca FFF7FEFF 		bl	fprintf
 2441              	.LVL303:
 2442              		.loc 1 306 9 is_stmt 1 discriminator 1 view .LVU525
 2443              	.L160:
 307:HW/FLASH/External_Flash/exFlash.c ****         if(!flag) 
 308:HW/FLASH/External_Flash/exFlash.c ****             FLASH_EX_CHECK(Flash_EX_Erase_Sector(addr));
 309:HW/FLASH/External_Flash/exFlash.c ****         addr += count;
ARM GAS  C:\Users\86157\AppData\Local\Temp\ccszuV1u.s 			page 52


 310:HW/FLASH/External_Flash/exFlash.c ****         size -= count;
 311:HW/FLASH/External_Flash/exFlash.c ****     }
 312:HW/FLASH/External_Flash/exFlash.c **** FLASH_EX_ERR_FLAG:
 313:HW/FLASH/External_Flash/exFlash.c ****     Flash_EX_CS_High();
 2444              		.loc 1 313 5 view .LVU526
 2445 00ce 4FF48051 		mov	r1, #4096
 2446 00d2 1F48     		ldr	r0, .L172+20
 2447 00d4 FFF7FEFF 		bl	GPIO_SetBits
 2448              	.LVL304:
 314:HW/FLASH/External_Flash/exFlash.c ****     return err;
 2449              		.loc 1 314 5 view .LVU527
 315:HW/FLASH/External_Flash/exFlash.c **** }
 2450              		.loc 1 315 1 is_stmt 0 view .LVU528
 2451 00d8 4046     		mov	r0, r8
 2452 00da 05B0     		add	sp, sp, #20
 2453              	.LCFI49:
 2454              		.cfi_remember_state
 2455              		.cfi_def_cfa_offset 28
 2456              		@ sp needed
 2457 00dc BDE8F083 		pop	{r4, r5, r6, r7, r8, r9, pc}
 2458              	.LVL305:
 2459              	.L165:
 2460              	.LCFI50:
 2461              		.cfi_restore_state
 308:HW/FLASH/External_Flash/exFlash.c ****         addr += count;
 2462              		.loc 1 308 56 is_stmt 1 discriminator 2 view .LVU529
 309:HW/FLASH/External_Flash/exFlash.c ****         size -= count;
 2463              		.loc 1 309 9 discriminator 2 view .LVU530
 309:HW/FLASH/External_Flash/exFlash.c ****         size -= count;
 2464              		.loc 1 309 14 is_stmt 0 discriminator 2 view .LVU531
 2465 00e0 2C44     		add	r4, r4, r5
 2466              	.LVL306:
 310:HW/FLASH/External_Flash/exFlash.c ****     }
 2467              		.loc 1 310 9 is_stmt 1 discriminator 2 view .LVU532
 310:HW/FLASH/External_Flash/exFlash.c ****     }
 2468              		.loc 1 310 14 is_stmt 0 discriminator 2 view .LVU533
 2469 00e2 761B     		subs	r6, r6, r5
 2470              	.LVL307:
 304:HW/FLASH/External_Flash/exFlash.c ****         count = MIN(size, 4096);
 2471              		.loc 1 304 33 is_stmt 1 discriminator 2 view .LVU534
 2472 00e4 0137     		adds	r7, r7, #1
 2473              	.LVL308:
 2474              	.L163:
 304:HW/FLASH/External_Flash/exFlash.c ****         count = MIN(size, 4096);
 2475              		.loc 1 304 22 discriminator 2 view .LVU535
 2476 00e6 4F45     		cmp	r7, r9
 2477 00e8 F1D2     		bcs	.L160
 305:HW/FLASH/External_Flash/exFlash.c ****         FLASH_EX_CHECK(Flash_EX_Is_Empty(&flag, addr, count));
 2478              		.loc 1 305 9 view .LVU536
 305:HW/FLASH/External_Flash/exFlash.c ****         FLASH_EX_CHECK(Flash_EX_Is_Empty(&flag, addr, count));
 2479              		.loc 1 305 15 is_stmt 0 view .LVU537
 2480 00ea 3546     		mov	r5, r6
 2481              	.LVL309:
 305:HW/FLASH/External_Flash/exFlash.c ****         FLASH_EX_CHECK(Flash_EX_Is_Empty(&flag, addr, count));
 2482              		.loc 1 305 15 view .LVU538
 2483 00ec B6F5805F 		cmp	r6, #4096
 2484 00f0 28BF     		it	cs
ARM GAS  C:\Users\86157\AppData\Local\Temp\ccszuV1u.s 			page 53


 2485 00f2 4FF48055 		movcs	r5, #4096
 2486              	.LVL310:
 306:HW/FLASH/External_Flash/exFlash.c ****         if(!flag) 
 2487              		.loc 1 306 9 is_stmt 1 view .LVU539
 2488 00f6 2A46     		mov	r2, r5
 2489 00f8 2146     		mov	r1, r4
 2490 00fa 0DF10F00 		add	r0, sp, #15
 2491 00fe FFF7FEFF 		bl	Flash_EX_Is_Empty
 2492              	.LVL311:
 306:HW/FLASH/External_Flash/exFlash.c ****         if(!flag) 
 2493              		.loc 1 306 9 view .LVU540
 2494 0102 8046     		mov	r8, r0
 2495 0104 0028     		cmp	r0, #0
 2496 0106 D3D1     		bne	.L171
 306:HW/FLASH/External_Flash/exFlash.c ****         if(!flag) 
 2497              		.loc 1 306 62 discriminator 2 view .LVU541
 307:HW/FLASH/External_Flash/exFlash.c ****             FLASH_EX_CHECK(Flash_EX_Erase_Sector(addr));
 2498              		.loc 1 307 9 discriminator 2 view .LVU542
 307:HW/FLASH/External_Flash/exFlash.c ****             FLASH_EX_CHECK(Flash_EX_Erase_Sector(addr));
 2499              		.loc 1 307 12 is_stmt 0 discriminator 2 view .LVU543
 2500 0108 9DF80F30 		ldrb	r3, [sp, #15]	@ zero_extendqisi2
 307:HW/FLASH/External_Flash/exFlash.c ****             FLASH_EX_CHECK(Flash_EX_Erase_Sector(addr));
 2501              		.loc 1 307 11 discriminator 2 view .LVU544
 2502 010c 002B     		cmp	r3, #0
 2503 010e E7D1     		bne	.L165
 308:HW/FLASH/External_Flash/exFlash.c ****         addr += count;
 2504              		.loc 1 308 13 is_stmt 1 view .LVU545
 2505 0110 2046     		mov	r0, r4
 2506              	.LVL312:
 308:HW/FLASH/External_Flash/exFlash.c ****         addr += count;
 2507              		.loc 1 308 13 is_stmt 0 view .LVU546
 2508 0112 FFF7FEFF 		bl	Flash_EX_Erase_Sector
 2509              	.LVL313:
 308:HW/FLASH/External_Flash/exFlash.c ****         addr += count;
 2510              		.loc 1 308 13 is_stmt 1 view .LVU547
 2511 0116 8046     		mov	r8, r0
 2512 0118 0028     		cmp	r0, #0
 2513 011a E1D0     		beq	.L165
 308:HW/FLASH/External_Flash/exFlash.c ****         addr += count;
 2514              		.loc 1 308 13 discriminator 1 view .LVU548
 2515 011c 074B     		ldr	r3, .L172
 2516 011e 1B68     		ldr	r3, [r3]
 2517 0120 D868     		ldr	r0, [r3, #12]
 2518              	.LVL314:
 308:HW/FLASH/External_Flash/exFlash.c ****         addr += count;
 2519              		.loc 1 308 13 is_stmt 0 discriminator 1 view .LVU549
 2520 0122 08EB8802 		add	r2, r8, r8, lsl #2
 2521 0126 064B     		ldr	r3, .L172+4
 2522 0128 0093     		str	r3, [sp]
 2523 012a 4FF49A73 		mov	r3, #308
 2524 012e 0749     		ldr	r1, .L172+16
 2525 0130 01EB8202 		add	r2, r1, r2, lsl #2
 2526 0134 0449     		ldr	r1, .L172+12
 2527 0136 FFF7FEFF 		bl	fprintf
 2528              	.LVL315:
 308:HW/FLASH/External_Flash/exFlash.c ****         addr += count;
 2529              		.loc 1 308 13 is_stmt 1 discriminator 1 view .LVU550
ARM GAS  C:\Users\86157\AppData\Local\Temp\ccszuV1u.s 			page 54


 2530 013a C8E7     		b	.L160
 2531              	.L173:
 2532              		.align	2
 2533              	.L172:
 2534 013c 00000000 		.word	_impure_ptr
 2535 0140 00000000 		.word	__FUNCTION__.2
 2536 0144 28000000 		.word	errInfo+40
 2537 0148 00000000 		.word	.LC1
 2538 014c 00000000 		.word	errInfo
 2539 0150 000C0140 		.word	1073810432
 2540              		.cfi_endproc
 2541              	.LFE45:
 2543              		.section	.text.Flash_EX_Write,"ax",%progbits
 2544              		.align	1
 2545              		.global	Flash_EX_Write
 2546              		.syntax unified
 2547              		.thumb
 2548              		.thumb_func
 2550              	Flash_EX_Write:
 2551              	.LVL316:
 2552              	.LFB46:
 316:HW/FLASH/External_Flash/exFlash.c **** 
 317:HW/FLASH/External_Flash/exFlash.c **** /* ÂÜôÂÖ•Êï∞ÊçÆ */
 318:HW/FLASH/External_Flash/exFlash.c **** Flash_EX_Errors_t Flash_EX_Write(uint8_t* src, uint32_t addr, uint32_t size){
 2553              		.loc 1 318 77 view -0
 2554              		.cfi_startproc
 2555              		@ args = 0, pretend = 0, frame = 0
 2556              		@ frame_needed = 0, uses_anonymous_args = 0
 2557              		.loc 1 318 77 is_stmt 0 view .LVU552
 2558 0000 2DE9F04F 		push	{r4, r5, r6, r7, r8, r9, r10, fp, lr}
 2559              	.LCFI51:
 2560              		.cfi_def_cfa_offset 36
 2561              		.cfi_offset 4, -36
 2562              		.cfi_offset 5, -32
 2563              		.cfi_offset 6, -28
 2564              		.cfi_offset 7, -24
 2565              		.cfi_offset 8, -20
 2566              		.cfi_offset 9, -16
 2567              		.cfi_offset 10, -12
 2568              		.cfi_offset 11, -8
 2569              		.cfi_offset 14, -4
 2570 0004 83B0     		sub	sp, sp, #12
 2571              	.LCFI52:
 2572              		.cfi_def_cfa_offset 48
 319:HW/FLASH/External_Flash/exFlash.c ****     Flash_EX_Errors_t err = 0;
 2573              		.loc 1 319 5 is_stmt 1 view .LVU553
 2574              	.LVL317:
 320:HW/FLASH/External_Flash/exFlash.c ****     /* Âà§Êñ≠ÊòØÂê¶Ë∂äÁïå */
 321:HW/FLASH/External_Flash/exFlash.c ****     CHECK_BOUND(addr + size - 1);
 2575              		.loc 1 321 5 view .LVU554
 2576 0006 8B18     		adds	r3, r1, r2
 2577 0008 013B     		subs	r3, r3, #1
 2578 000a B3F1006F 		cmp	r3, #134217728
 2579 000e 4BD2     		bcs	.L199
 2580 0010 0746     		mov	r7, r0
 2581 0012 8A46     		mov	r10, r1
 2582 0014 1646     		mov	r6, r2
ARM GAS  C:\Users\86157\AppData\Local\Temp\ccszuV1u.s 			page 55


 2583              		.loc 1 321 33 discriminator 2 view .LVU555
 322:HW/FLASH/External_Flash/exFlash.c **** 
 323:HW/FLASH/External_Flash/exFlash.c ****     /* Êì¶Èô§ÈùûÁ©∫Âå∫Âüü */
 324:HW/FLASH/External_Flash/exFlash.c ****     FLASH_EX_CHECK(Flash_EX_Erase_NonEmpty(addr, size));
 2584              		.loc 1 324 5 discriminator 2 view .LVU556
 2585 0016 1146     		mov	r1, r2
 2586              	.LVL318:
 2587              		.loc 1 324 5 is_stmt 0 discriminator 2 view .LVU557
 2588 0018 5046     		mov	r0, r10
 2589              	.LVL319:
 2590              		.loc 1 324 5 discriminator 2 view .LVU558
 2591 001a FFF7FEFF 		bl	Flash_EX_Erase_NonEmpty
 2592              	.LVL320:
 2593              		.loc 1 324 5 is_stmt 1 discriminator 2 view .LVU559
 2594 001e 0446     		mov	r4, r0
 2595 0020 0028     		cmp	r0, #0
 2596 0022 4ED1     		bne	.L200
 2597              		.loc 1 324 56 discriminator 2 view .LVU560
 325:HW/FLASH/External_Flash/exFlash.c **** 
 326:HW/FLASH/External_Flash/exFlash.c ****     /* ÂÜô‰ΩøËÉΩ */
 327:HW/FLASH/External_Flash/exFlash.c ****     FLASH_EX_CHECK(Flash_EX_Write_Enable());
 2598              		.loc 1 327 5 discriminator 2 view .LVU561
 2599 0024 FFF7FEFF 		bl	Flash_EX_Write_Enable
 2600              	.LVL321:
 2601              		.loc 1 327 5 discriminator 2 view .LVU562
 2602 0028 0446     		mov	r4, r0
 2603 002a 0028     		cmp	r0, #0
 2604 002c 61D1     		bne	.L201
 2605              		.loc 1 327 44 discriminator 2 view .LVU563
 328:HW/FLASH/External_Flash/exFlash.c **** 
 329:HW/FLASH/External_Flash/exFlash.c ****     /* ÂÖàÂÜôÂà∞È°µÂØπÈΩê */
 330:HW/FLASH/External_Flash/exFlash.c ****     uint32_t count = MIN(256 - addr % 256, size);
 2606              		.loc 1 330 5 discriminator 2 view .LVU564
 2607              		.loc 1 330 22 is_stmt 0 discriminator 2 view .LVU565
 2608 002e 5FFA8AF8 		uxtb	r8, r10
 2609 0032 C8F58078 		rsb	r8, r8, #256
 2610              		.loc 1 330 14 discriminator 2 view .LVU566
 2611 0036 B045     		cmp	r8, r6
 2612 0038 28BF     		it	cs
 2613 003a B046     		movcs	r8, r6
 2614              	.LVL322:
 331:HW/FLASH/External_Flash/exFlash.c ****     uint32_t idx;
 2615              		.loc 1 331 5 is_stmt 1 discriminator 2 view .LVU567
 332:HW/FLASH/External_Flash/exFlash.c ****     FLASH_EX_CHECK(Flash_EX_Synchronize());
 2616              		.loc 1 332 5 discriminator 2 view .LVU568
 2617 003c FFF7FEFF 		bl	Flash_EX_Synchronize
 2618              	.LVL323:
 2619              		.loc 1 332 5 discriminator 2 view .LVU569
 2620 0040 0446     		mov	r4, r0
 2621 0042 0028     		cmp	r0, #0
 2622 0044 65D1     		bne	.L202
 2623              		.loc 1 332 43 discriminator 2 view .LVU570
 333:HW/FLASH/External_Flash/exFlash.c ****     Flash_EX_CS_Low();
 2624              		.loc 1 333 5 discriminator 2 view .LVU571
 2625 0046 4FF48051 		mov	r1, #4096
 2626 004a AD48     		ldr	r0, .L218
 2627              	.LVL324:
ARM GAS  C:\Users\86157\AppData\Local\Temp\ccszuV1u.s 			page 56


 2628              		.loc 1 333 5 is_stmt 0 discriminator 2 view .LVU572
 2629 004c FFF7FEFF 		bl	GPIO_ResetBits
 2630              	.LVL325:
 334:HW/FLASH/External_Flash/exFlash.c ****     FLASH_EX_CHECK(Flash_EX_Send_Byte(0X02));   // Page Program
 2631              		.loc 1 334 5 is_stmt 1 discriminator 2 view .LVU573
 2632 0050 0220     		movs	r0, #2
 2633 0052 FFF7FEFF 		bl	Flash_EX_Send_Byte
 2634              	.LVL326:
 2635              		.loc 1 334 5 discriminator 2 view .LVU574
 2636 0056 0446     		mov	r4, r0
 2637 0058 0028     		cmp	r0, #0
 2638 005a 6AD1     		bne	.L203
 2639              		.loc 1 334 45 discriminator 2 view .LVU575
 335:HW/FLASH/External_Flash/exFlash.c ****     FLASH_EX_CHECK(Flash_EX_Send_Byte((addr & 0XFF0000) >> 16));
 2640              		.loc 1 335 5 discriminator 2 view .LVU576
 2641 005c CAF30740 		ubfx	r0, r10, #16, #8
 2642              	.LVL327:
 2643              		.loc 1 335 5 is_stmt 0 discriminator 2 view .LVU577
 2644 0060 FFF7FEFF 		bl	Flash_EX_Send_Byte
 2645              	.LVL328:
 2646              		.loc 1 335 5 is_stmt 1 discriminator 2 view .LVU578
 2647 0064 0446     		mov	r4, r0
 2648 0066 0028     		cmp	r0, #0
 2649 0068 73D1     		bne	.L204
 2650              		.loc 1 335 64 discriminator 2 view .LVU579
 336:HW/FLASH/External_Flash/exFlash.c ****     FLASH_EX_CHECK(Flash_EX_Send_Byte((addr & 0X00FF00) >>  8));
 2651              		.loc 1 336 5 discriminator 2 view .LVU580
 2652 006a CAF30720 		ubfx	r0, r10, #8, #8
 2653              	.LVL329:
 2654              		.loc 1 336 5 is_stmt 0 discriminator 2 view .LVU581
 2655 006e FFF7FEFF 		bl	Flash_EX_Send_Byte
 2656              	.LVL330:
 2657              		.loc 1 336 5 is_stmt 1 discriminator 2 view .LVU582
 2658 0072 0446     		mov	r4, r0
 2659 0074 0028     		cmp	r0, #0
 2660 0076 7CD1     		bne	.L205
 2661              		.loc 1 336 64 discriminator 2 view .LVU583
 337:HW/FLASH/External_Flash/exFlash.c ****     FLASH_EX_CHECK(Flash_EX_Send_Byte((addr & 0X0000FF) >>  0));
 2662              		.loc 1 337 5 discriminator 2 view .LVU584
 2663 0078 5FFA8AF0 		uxtb	r0, r10
 2664              	.LVL331:
 2665              		.loc 1 337 5 is_stmt 0 discriminator 2 view .LVU585
 2666 007c FFF7FEFF 		bl	Flash_EX_Send_Byte
 2667              	.LVL332:
 2668              		.loc 1 337 5 is_stmt 1 discriminator 2 view .LVU586
 2669 0080 0446     		mov	r4, r0
 2670 0082 0028     		cmp	r0, #0
 2671 0084 40F08580 		bne	.L206
 338:HW/FLASH/External_Flash/exFlash.c ****     for(idx = 0; idx < count; ++idx){
 2672              		.loc 1 338 13 is_stmt 0 view .LVU587
 2673 0088 4FF00009 		mov	r9, #0
 2674              	.L183:
 2675              	.LVL333:
 2676              		.loc 1 338 22 is_stmt 1 discriminator 2 view .LVU588
 2677 008c C145     		cmp	r9, r8
 2678 008e 80F0A080 		bcs	.L207
 339:HW/FLASH/External_Flash/exFlash.c ****         FLASH_EX_CHECK(Flash_EX_Send_Byte(src[idx]));
ARM GAS  C:\Users\86157\AppData\Local\Temp\ccszuV1u.s 			page 57


 2679              		.loc 1 339 9 view .LVU589
 2680 0092 17F80900 		ldrb	r0, [r7, r9]	@ zero_extendqisi2
 2681              	.LVL334:
 2682              		.loc 1 339 9 is_stmt 0 view .LVU590
 2683 0096 FFF7FEFF 		bl	Flash_EX_Send_Byte
 2684              	.LVL335:
 2685              		.loc 1 339 9 is_stmt 1 view .LVU591
 2686 009a 0446     		mov	r4, r0
 2687 009c 0028     		cmp	r0, #0
 2688 009e 40F08880 		bne	.L208
 2689              		.loc 1 339 53 discriminator 2 view .LVU592
 338:HW/FLASH/External_Flash/exFlash.c ****     for(idx = 0; idx < count; ++idx){
 2690              		.loc 1 338 31 discriminator 2 view .LVU593
 2691 00a2 09F10109 		add	r9, r9, #1
 2692              	.LVL336:
 338:HW/FLASH/External_Flash/exFlash.c ****     for(idx = 0; idx < count; ++idx){
 2693              		.loc 1 338 31 is_stmt 0 discriminator 2 view .LVU594
 2694 00a6 F1E7     		b	.L183
 2695              	.LVL337:
 2696              	.L199:
 321:HW/FLASH/External_Flash/exFlash.c **** 
 2697              		.loc 1 321 5 is_stmt 1 discriminator 1 view .LVU595
 321:HW/FLASH/External_Flash/exFlash.c **** 
 2698              		.loc 1 321 5 discriminator 1 view .LVU596
 2699 00a8 964B     		ldr	r3, .L218+4
 2700 00aa 1B68     		ldr	r3, [r3]
 2701 00ac D868     		ldr	r0, [r3, #12]
 2702              	.LVL338:
 321:HW/FLASH/External_Flash/exFlash.c **** 
 2703              		.loc 1 321 5 is_stmt 0 discriminator 1 view .LVU597
 2704 00ae 964B     		ldr	r3, .L218+8
 2705 00b0 0093     		str	r3, [sp]
 2706 00b2 40F24113 		movw	r3, #321
 2707 00b6 954A     		ldr	r2, .L218+12
 2708              	.LVL339:
 321:HW/FLASH/External_Flash/exFlash.c **** 
 2709              		.loc 1 321 5 discriminator 1 view .LVU598
 2710 00b8 9549     		ldr	r1, .L218+16
 2711              	.LVL340:
 321:HW/FLASH/External_Flash/exFlash.c **** 
 2712              		.loc 1 321 5 discriminator 1 view .LVU599
 2713 00ba FFF7FEFF 		bl	fprintf
 2714              	.LVL341:
 321:HW/FLASH/External_Flash/exFlash.c **** 
 2715              		.loc 1 321 5 is_stmt 1 discriminator 1 view .LVU600
 2716 00be 0224     		movs	r4, #2
 2717 00c0 0EE0     		b	.L176
 2718              	.LVL342:
 2719              	.L200:
 324:HW/FLASH/External_Flash/exFlash.c **** 
 2720              		.loc 1 324 5 discriminator 1 view .LVU601
 2721 00c2 904B     		ldr	r3, .L218+4
 2722 00c4 1B68     		ldr	r3, [r3]
 2723 00c6 D868     		ldr	r0, [r3, #12]
 2724              	.LVL343:
 324:HW/FLASH/External_Flash/exFlash.c **** 
 2725              		.loc 1 324 5 is_stmt 0 discriminator 1 view .LVU602
ARM GAS  C:\Users\86157\AppData\Local\Temp\ccszuV1u.s 			page 58


 2726 00c8 04EB8402 		add	r2, r4, r4, lsl #2
 2727 00cc 8E4B     		ldr	r3, .L218+8
 2728 00ce 0093     		str	r3, [sp]
 2729 00d0 4FF4A273 		mov	r3, #324
 2730 00d4 8F49     		ldr	r1, .L218+20
 2731 00d6 01EB8202 		add	r2, r1, r2, lsl #2
 2732 00da 8D49     		ldr	r1, .L218+16
 2733 00dc FFF7FEFF 		bl	fprintf
 2734              	.LVL344:
 324:HW/FLASH/External_Flash/exFlash.c **** 
 2735              		.loc 1 324 5 is_stmt 1 discriminator 1 view .LVU603
 2736              	.L176:
 340:HW/FLASH/External_Flash/exFlash.c ****     }
 341:HW/FLASH/External_Flash/exFlash.c ****     Flash_EX_CS_High();
 342:HW/FLASH/External_Flash/exFlash.c ****     FLASH_EX_CHECK(Flash_EX_Synchronize());
 343:HW/FLASH/External_Flash/exFlash.c ****     src += count;
 344:HW/FLASH/External_Flash/exFlash.c ****     size -= count;
 345:HW/FLASH/External_Flash/exFlash.c ****     addr += count;
 346:HW/FLASH/External_Flash/exFlash.c **** 
 347:HW/FLASH/External_Flash/exFlash.c ****     /* ÂÜçÊääÂâ©‰∏ãÁöÑÊï∞ÊçÆÂÜôÂÆå */
 348:HW/FLASH/External_Flash/exFlash.c ****     uint32_t pages = (size + 255) / 256;
 349:HW/FLASH/External_Flash/exFlash.c ****     for(uint32_t p = 0; p < pages; ++p){
 350:HW/FLASH/External_Flash/exFlash.c ****         FLASH_EX_CHECK(Flash_EX_Synchronize());
 351:HW/FLASH/External_Flash/exFlash.c ****         Flash_EX_CS_Low();
 352:HW/FLASH/External_Flash/exFlash.c ****         FLASH_EX_CHECK(Flash_EX_Send_Byte(0X02));   // Page Program
 353:HW/FLASH/External_Flash/exFlash.c ****         FLASH_EX_CHECK(Flash_EX_Send_Byte((addr & 0XFF0000) >> 16));
 354:HW/FLASH/External_Flash/exFlash.c ****         FLASH_EX_CHECK(Flash_EX_Send_Byte((addr & 0X00FF00) >>  8));
 355:HW/FLASH/External_Flash/exFlash.c ****         FLASH_EX_CHECK(Flash_EX_Send_Byte((addr & 0X0000FF) >>  0));
 356:HW/FLASH/External_Flash/exFlash.c ****         for(uint8_t i = 0; i < 256; ++i){
 357:HW/FLASH/External_Flash/exFlash.c ****             idx = i + p * 256;
 358:HW/FLASH/External_Flash/exFlash.c ****             if(idx >= size) 
 359:HW/FLASH/External_Flash/exFlash.c ****                 break;
 360:HW/FLASH/External_Flash/exFlash.c ****             FLASH_EX_CHECK(Flash_EX_Send_Byte(src[idx]));
 361:HW/FLASH/External_Flash/exFlash.c ****         }
 362:HW/FLASH/External_Flash/exFlash.c ****         addr += 256;
 363:HW/FLASH/External_Flash/exFlash.c ****         Flash_EX_CS_High();
 364:HW/FLASH/External_Flash/exFlash.c ****     }
 365:HW/FLASH/External_Flash/exFlash.c ****     FLASH_EX_CHECK(Flash_EX_Synchronize());
 366:HW/FLASH/External_Flash/exFlash.c **** 
 367:HW/FLASH/External_Flash/exFlash.c ****     /* ÂÜôÂ§±ËÉΩ */
 368:HW/FLASH/External_Flash/exFlash.c ****     FLASH_EX_CHECK(Flash_EX_Write_Disable());
 2737              		.loc 1 368 45 discriminator 3 view .LVU604
 369:HW/FLASH/External_Flash/exFlash.c **** FLASH_EX_ERR_FLAG:
 370:HW/FLASH/External_Flash/exFlash.c ****     Flash_EX_CS_High();
 2738              		.loc 1 370 5 discriminator 3 view .LVU605
 2739 00e0 4FF48051 		mov	r1, #4096
 2740 00e4 8648     		ldr	r0, .L218
 2741 00e6 FFF7FEFF 		bl	GPIO_SetBits
 2742              	.LVL345:
 371:HW/FLASH/External_Flash/exFlash.c ****     return err;
 2743              		.loc 1 371 5 discriminator 3 view .LVU606
 372:HW/FLASH/External_Flash/exFlash.c **** }
 2744              		.loc 1 372 1 is_stmt 0 discriminator 3 view .LVU607
 2745 00ea 2046     		mov	r0, r4
 2746 00ec 03B0     		add	sp, sp, #12
 2747              	.LCFI53:
 2748              		.cfi_remember_state
ARM GAS  C:\Users\86157\AppData\Local\Temp\ccszuV1u.s 			page 59


 2749              		.cfi_def_cfa_offset 36
 2750              		@ sp needed
 2751 00ee BDE8F08F 		pop	{r4, r5, r6, r7, r8, r9, r10, fp, pc}
 2752              	.LVL346:
 2753              	.L201:
 2754              	.LCFI54:
 2755              		.cfi_restore_state
 327:HW/FLASH/External_Flash/exFlash.c **** 
 2756              		.loc 1 327 5 is_stmt 1 discriminator 1 view .LVU608
 2757 00f2 844B     		ldr	r3, .L218+4
 2758 00f4 1B68     		ldr	r3, [r3]
 2759 00f6 D868     		ldr	r0, [r3, #12]
 2760              	.LVL347:
 327:HW/FLASH/External_Flash/exFlash.c **** 
 2761              		.loc 1 327 5 is_stmt 0 discriminator 1 view .LVU609
 2762 00f8 04EB8402 		add	r2, r4, r4, lsl #2
 2763 00fc 824B     		ldr	r3, .L218+8
 2764 00fe 0093     		str	r3, [sp]
 2765 0100 40F24713 		movw	r3, #327
 2766 0104 8349     		ldr	r1, .L218+20
 2767 0106 01EB8202 		add	r2, r1, r2, lsl #2
 2768 010a 8149     		ldr	r1, .L218+16
 2769 010c FFF7FEFF 		bl	fprintf
 2770              	.LVL348:
 327:HW/FLASH/External_Flash/exFlash.c **** 
 2771              		.loc 1 327 5 is_stmt 1 discriminator 1 view .LVU610
 2772 0110 E6E7     		b	.L176
 2773              	.LVL349:
 2774              	.L202:
 332:HW/FLASH/External_Flash/exFlash.c ****     Flash_EX_CS_Low();
 2775              		.loc 1 332 5 discriminator 1 view .LVU611
 2776 0112 7C4B     		ldr	r3, .L218+4
 2777 0114 1B68     		ldr	r3, [r3]
 2778 0116 D868     		ldr	r0, [r3, #12]
 2779              	.LVL350:
 332:HW/FLASH/External_Flash/exFlash.c ****     Flash_EX_CS_Low();
 2780              		.loc 1 332 5 is_stmt 0 discriminator 1 view .LVU612
 2781 0118 04EB8402 		add	r2, r4, r4, lsl #2
 2782 011c 7A4B     		ldr	r3, .L218+8
 2783 011e 0093     		str	r3, [sp]
 2784 0120 4FF4A673 		mov	r3, #332
 2785 0124 7B49     		ldr	r1, .L218+20
 2786 0126 01EB8202 		add	r2, r1, r2, lsl #2
 2787 012a 7949     		ldr	r1, .L218+16
 2788 012c FFF7FEFF 		bl	fprintf
 2789              	.LVL351:
 332:HW/FLASH/External_Flash/exFlash.c ****     Flash_EX_CS_Low();
 2790              		.loc 1 332 5 is_stmt 1 discriminator 1 view .LVU613
 2791 0130 D6E7     		b	.L176
 2792              	.LVL352:
 2793              	.L203:
 334:HW/FLASH/External_Flash/exFlash.c ****     FLASH_EX_CHECK(Flash_EX_Send_Byte((addr & 0XFF0000) >> 16));
 2794              		.loc 1 334 5 discriminator 1 view .LVU614
 2795 0132 744B     		ldr	r3, .L218+4
 2796 0134 1B68     		ldr	r3, [r3]
 2797 0136 D868     		ldr	r0, [r3, #12]
 2798              	.LVL353:
ARM GAS  C:\Users\86157\AppData\Local\Temp\ccszuV1u.s 			page 60


 334:HW/FLASH/External_Flash/exFlash.c ****     FLASH_EX_CHECK(Flash_EX_Send_Byte((addr & 0XFF0000) >> 16));
 2799              		.loc 1 334 5 is_stmt 0 discriminator 1 view .LVU615
 2800 0138 04EB8402 		add	r2, r4, r4, lsl #2
 2801 013c 724B     		ldr	r3, .L218+8
 2802 013e 0093     		str	r3, [sp]
 2803 0140 4FF4A773 		mov	r3, #334
 2804 0144 7349     		ldr	r1, .L218+20
 2805 0146 01EB8202 		add	r2, r1, r2, lsl #2
 2806 014a 7149     		ldr	r1, .L218+16
 2807 014c FFF7FEFF 		bl	fprintf
 2808              	.LVL354:
 334:HW/FLASH/External_Flash/exFlash.c ****     FLASH_EX_CHECK(Flash_EX_Send_Byte((addr & 0XFF0000) >> 16));
 2809              		.loc 1 334 5 is_stmt 1 discriminator 1 view .LVU616
 2810 0150 C6E7     		b	.L176
 2811              	.LVL355:
 2812              	.L204:
 335:HW/FLASH/External_Flash/exFlash.c ****     FLASH_EX_CHECK(Flash_EX_Send_Byte((addr & 0X00FF00) >>  8));
 2813              		.loc 1 335 5 discriminator 1 view .LVU617
 2814 0152 6C4B     		ldr	r3, .L218+4
 2815 0154 1B68     		ldr	r3, [r3]
 2816 0156 D868     		ldr	r0, [r3, #12]
 2817              	.LVL356:
 335:HW/FLASH/External_Flash/exFlash.c ****     FLASH_EX_CHECK(Flash_EX_Send_Byte((addr & 0X00FF00) >>  8));
 2818              		.loc 1 335 5 is_stmt 0 discriminator 1 view .LVU618
 2819 0158 04EB8402 		add	r2, r4, r4, lsl #2
 2820 015c 6A4B     		ldr	r3, .L218+8
 2821 015e 0093     		str	r3, [sp]
 2822 0160 40F24F13 		movw	r3, #335
 2823 0164 6B49     		ldr	r1, .L218+20
 2824 0166 01EB8202 		add	r2, r1, r2, lsl #2
 2825 016a 6949     		ldr	r1, .L218+16
 2826 016c FFF7FEFF 		bl	fprintf
 2827              	.LVL357:
 335:HW/FLASH/External_Flash/exFlash.c ****     FLASH_EX_CHECK(Flash_EX_Send_Byte((addr & 0X00FF00) >>  8));
 2828              		.loc 1 335 5 is_stmt 1 discriminator 1 view .LVU619
 2829 0170 B6E7     		b	.L176
 2830              	.LVL358:
 2831              	.L205:
 336:HW/FLASH/External_Flash/exFlash.c ****     FLASH_EX_CHECK(Flash_EX_Send_Byte((addr & 0X0000FF) >>  0));
 2832              		.loc 1 336 5 discriminator 1 view .LVU620
 2833 0172 644B     		ldr	r3, .L218+4
 2834 0174 1B68     		ldr	r3, [r3]
 2835 0176 D868     		ldr	r0, [r3, #12]
 2836              	.LVL359:
 336:HW/FLASH/External_Flash/exFlash.c ****     FLASH_EX_CHECK(Flash_EX_Send_Byte((addr & 0X0000FF) >>  0));
 2837              		.loc 1 336 5 is_stmt 0 discriminator 1 view .LVU621
 2838 0178 04EB8402 		add	r2, r4, r4, lsl #2
 2839 017c 624B     		ldr	r3, .L218+8
 2840 017e 0093     		str	r3, [sp]
 2841 0180 4FF4A873 		mov	r3, #336
 2842 0184 6349     		ldr	r1, .L218+20
 2843 0186 01EB8202 		add	r2, r1, r2, lsl #2
 2844 018a 6149     		ldr	r1, .L218+16
 2845 018c FFF7FEFF 		bl	fprintf
 2846              	.LVL360:
 336:HW/FLASH/External_Flash/exFlash.c ****     FLASH_EX_CHECK(Flash_EX_Send_Byte((addr & 0X0000FF) >>  0));
 2847              		.loc 1 336 5 is_stmt 1 discriminator 1 view .LVU622
ARM GAS  C:\Users\86157\AppData\Local\Temp\ccszuV1u.s 			page 61


 2848 0190 A6E7     		b	.L176
 2849              	.LVL361:
 2850              	.L206:
 337:HW/FLASH/External_Flash/exFlash.c ****     for(idx = 0; idx < count; ++idx){
 2851              		.loc 1 337 5 discriminator 1 view .LVU623
 2852 0192 5C4B     		ldr	r3, .L218+4
 2853 0194 1B68     		ldr	r3, [r3]
 2854 0196 D868     		ldr	r0, [r3, #12]
 2855              	.LVL362:
 337:HW/FLASH/External_Flash/exFlash.c ****     for(idx = 0; idx < count; ++idx){
 2856              		.loc 1 337 5 is_stmt 0 discriminator 1 view .LVU624
 2857 0198 04EB8402 		add	r2, r4, r4, lsl #2
 2858 019c 5A4B     		ldr	r3, .L218+8
 2859 019e 0093     		str	r3, [sp]
 2860 01a0 40F25113 		movw	r3, #337
 2861 01a4 5B49     		ldr	r1, .L218+20
 2862 01a6 01EB8202 		add	r2, r1, r2, lsl #2
 2863 01aa 5949     		ldr	r1, .L218+16
 2864 01ac FFF7FEFF 		bl	fprintf
 2865              	.LVL363:
 337:HW/FLASH/External_Flash/exFlash.c ****     for(idx = 0; idx < count; ++idx){
 2866              		.loc 1 337 5 is_stmt 1 discriminator 1 view .LVU625
 2867 01b0 96E7     		b	.L176
 2868              	.LVL364:
 2869              	.L208:
 339:HW/FLASH/External_Flash/exFlash.c ****     }
 2870              		.loc 1 339 9 discriminator 1 view .LVU626
 2871 01b2 544B     		ldr	r3, .L218+4
 2872 01b4 1B68     		ldr	r3, [r3]
 2873 01b6 D868     		ldr	r0, [r3, #12]
 2874              	.LVL365:
 339:HW/FLASH/External_Flash/exFlash.c ****     }
 2875              		.loc 1 339 9 is_stmt 0 discriminator 1 view .LVU627
 2876 01b8 04EB8402 		add	r2, r4, r4, lsl #2
 2877 01bc 524B     		ldr	r3, .L218+8
 2878 01be 0093     		str	r3, [sp]
 2879 01c0 40F25313 		movw	r3, #339
 2880 01c4 5349     		ldr	r1, .L218+20
 2881 01c6 01EB8202 		add	r2, r1, r2, lsl #2
 2882 01ca 5149     		ldr	r1, .L218+16
 2883 01cc FFF7FEFF 		bl	fprintf
 2884              	.LVL366:
 339:HW/FLASH/External_Flash/exFlash.c ****     }
 2885              		.loc 1 339 9 is_stmt 1 discriminator 1 view .LVU628
 2886 01d0 86E7     		b	.L176
 2887              	.LVL367:
 2888              	.L207:
 341:HW/FLASH/External_Flash/exFlash.c ****     FLASH_EX_CHECK(Flash_EX_Synchronize());
 2889              		.loc 1 341 5 view .LVU629
 2890 01d2 4FF48051 		mov	r1, #4096
 2891 01d6 4A48     		ldr	r0, .L218
 2892              	.LVL368:
 341:HW/FLASH/External_Flash/exFlash.c ****     FLASH_EX_CHECK(Flash_EX_Synchronize());
 2893              		.loc 1 341 5 is_stmt 0 view .LVU630
 2894 01d8 FFF7FEFF 		bl	GPIO_SetBits
 2895              	.LVL369:
 342:HW/FLASH/External_Flash/exFlash.c ****     src += count;
ARM GAS  C:\Users\86157\AppData\Local\Temp\ccszuV1u.s 			page 62


 2896              		.loc 1 342 5 is_stmt 1 view .LVU631
 2897 01dc FFF7FEFF 		bl	Flash_EX_Synchronize
 2898              	.LVL370:
 342:HW/FLASH/External_Flash/exFlash.c ****     src += count;
 2899              		.loc 1 342 5 view .LVU632
 2900 01e0 0446     		mov	r4, r0
 2901 01e2 0028     		cmp	r0, #0
 2902 01e4 40D1     		bne	.L209
 342:HW/FLASH/External_Flash/exFlash.c ****     src += count;
 2903              		.loc 1 342 43 discriminator 2 view .LVU633
 343:HW/FLASH/External_Flash/exFlash.c ****     size -= count;
 2904              		.loc 1 343 5 discriminator 2 view .LVU634
 2905              	.LVL371:
 344:HW/FLASH/External_Flash/exFlash.c ****     addr += count;
 2906              		.loc 1 344 5 discriminator 2 view .LVU635
 344:HW/FLASH/External_Flash/exFlash.c ****     addr += count;
 2907              		.loc 1 344 10 is_stmt 0 discriminator 2 view .LVU636
 2908 01e6 A6EB0806 		sub	r6, r6, r8
 2909              	.LVL372:
 345:HW/FLASH/External_Flash/exFlash.c **** 
 2910              		.loc 1 345 5 is_stmt 1 discriminator 2 view .LVU637
 345:HW/FLASH/External_Flash/exFlash.c **** 
 2911              		.loc 1 345 10 is_stmt 0 discriminator 2 view .LVU638
 2912 01ea C244     		add	r10, r10, r8
 2913              	.LVL373:
 348:HW/FLASH/External_Flash/exFlash.c ****     for(uint32_t p = 0; p < pages; ++p){
 2914              		.loc 1 348 5 is_stmt 1 discriminator 2 view .LVU639
 348:HW/FLASH/External_Flash/exFlash.c ****     for(uint32_t p = 0; p < pages; ++p){
 2915              		.loc 1 348 28 is_stmt 0 discriminator 2 view .LVU640
 2916 01ec 06F1FF0B 		add	fp, r6, #255
 348:HW/FLASH/External_Flash/exFlash.c ****     for(uint32_t p = 0; p < pages; ++p){
 2917              		.loc 1 348 14 discriminator 2 view .LVU641
 2918 01f0 4FEA1B2B 		lsr	fp, fp, #8
 2919              	.LVL374:
 349:HW/FLASH/External_Flash/exFlash.c ****         FLASH_EX_CHECK(Flash_EX_Synchronize());
 2920              		.loc 1 349 5 is_stmt 1 discriminator 2 view .LVU642
 2921              	.LBB4:
 349:HW/FLASH/External_Flash/exFlash.c ****         FLASH_EX_CHECK(Flash_EX_Synchronize());
 2922              		.loc 1 349 9 discriminator 2 view .LVU643
 349:HW/FLASH/External_Flash/exFlash.c ****         FLASH_EX_CHECK(Flash_EX_Synchronize());
 2923              		.loc 1 349 18 is_stmt 0 discriminator 2 view .LVU644
 2924 01f4 0025     		movs	r5, #0
 2925              	.LVL375:
 2926              	.L187:
 349:HW/FLASH/External_Flash/exFlash.c ****         FLASH_EX_CHECK(Flash_EX_Synchronize());
 2927              		.loc 1 349 27 is_stmt 1 discriminator 1 view .LVU645
 2928 01f6 5D45     		cmp	r5, fp
 2929 01f8 80F0B780 		bcs	.L210
 350:HW/FLASH/External_Flash/exFlash.c ****         Flash_EX_CS_Low();
 2930              		.loc 1 350 9 view .LVU646
 2931 01fc FFF7FEFF 		bl	Flash_EX_Synchronize
 2932              	.LVL376:
 350:HW/FLASH/External_Flash/exFlash.c ****         Flash_EX_CS_Low();
 2933              		.loc 1 350 9 view .LVU647
 2934 0200 0446     		mov	r4, r0
 2935 0202 0028     		cmp	r0, #0
 2936 0204 40D1     		bne	.L211
ARM GAS  C:\Users\86157\AppData\Local\Temp\ccszuV1u.s 			page 63


 350:HW/FLASH/External_Flash/exFlash.c ****         Flash_EX_CS_Low();
 2937              		.loc 1 350 47 discriminator 2 view .LVU648
 351:HW/FLASH/External_Flash/exFlash.c ****         FLASH_EX_CHECK(Flash_EX_Send_Byte(0X02));   // Page Program
 2938              		.loc 1 351 9 discriminator 2 view .LVU649
 2939 0206 4FF48051 		mov	r1, #4096
 2940 020a 3D48     		ldr	r0, .L218
 2941              	.LVL377:
 351:HW/FLASH/External_Flash/exFlash.c ****         FLASH_EX_CHECK(Flash_EX_Send_Byte(0X02));   // Page Program
 2942              		.loc 1 351 9 is_stmt 0 discriminator 2 view .LVU650
 2943 020c FFF7FEFF 		bl	GPIO_ResetBits
 2944              	.LVL378:
 352:HW/FLASH/External_Flash/exFlash.c ****         FLASH_EX_CHECK(Flash_EX_Send_Byte((addr & 0XFF0000) >> 16));
 2945              		.loc 1 352 9 is_stmt 1 discriminator 2 view .LVU651
 2946 0210 0220     		movs	r0, #2
 2947 0212 FFF7FEFF 		bl	Flash_EX_Send_Byte
 2948              	.LVL379:
 352:HW/FLASH/External_Flash/exFlash.c ****         FLASH_EX_CHECK(Flash_EX_Send_Byte((addr & 0XFF0000) >> 16));
 2949              		.loc 1 352 9 discriminator 2 view .LVU652
 2950 0216 0446     		mov	r4, r0
 2951 0218 0028     		cmp	r0, #0
 2952 021a 44D1     		bne	.L212
 352:HW/FLASH/External_Flash/exFlash.c ****         FLASH_EX_CHECK(Flash_EX_Send_Byte((addr & 0XFF0000) >> 16));
 2953              		.loc 1 352 49 discriminator 2 view .LVU653
 353:HW/FLASH/External_Flash/exFlash.c ****         FLASH_EX_CHECK(Flash_EX_Send_Byte((addr & 0X00FF00) >>  8));
 2954              		.loc 1 353 9 discriminator 2 view .LVU654
 2955 021c CAF30740 		ubfx	r0, r10, #16, #8
 2956              	.LVL380:
 353:HW/FLASH/External_Flash/exFlash.c ****         FLASH_EX_CHECK(Flash_EX_Send_Byte((addr & 0X00FF00) >>  8));
 2957              		.loc 1 353 9 is_stmt 0 discriminator 2 view .LVU655
 2958 0220 FFF7FEFF 		bl	Flash_EX_Send_Byte
 2959              	.LVL381:
 353:HW/FLASH/External_Flash/exFlash.c ****         FLASH_EX_CHECK(Flash_EX_Send_Byte((addr & 0X00FF00) >>  8));
 2960              		.loc 1 353 9 is_stmt 1 discriminator 2 view .LVU656
 2961 0224 0446     		mov	r4, r0
 2962 0226 0028     		cmp	r0, #0
 2963 0228 4CD1     		bne	.L213
 353:HW/FLASH/External_Flash/exFlash.c ****         FLASH_EX_CHECK(Flash_EX_Send_Byte((addr & 0X00FF00) >>  8));
 2964              		.loc 1 353 68 discriminator 2 view .LVU657
 354:HW/FLASH/External_Flash/exFlash.c ****         FLASH_EX_CHECK(Flash_EX_Send_Byte((addr & 0X0000FF) >>  0));
 2965              		.loc 1 354 9 discriminator 2 view .LVU658
 2966 022a CAF30720 		ubfx	r0, r10, #8, #8
 2967              	.LVL382:
 354:HW/FLASH/External_Flash/exFlash.c ****         FLASH_EX_CHECK(Flash_EX_Send_Byte((addr & 0X0000FF) >>  0));
 2968              		.loc 1 354 9 is_stmt 0 discriminator 2 view .LVU659
 2969 022e FFF7FEFF 		bl	Flash_EX_Send_Byte
 2970              	.LVL383:
 354:HW/FLASH/External_Flash/exFlash.c ****         FLASH_EX_CHECK(Flash_EX_Send_Byte((addr & 0X0000FF) >>  0));
 2971              		.loc 1 354 9 is_stmt 1 discriminator 2 view .LVU660
 2972 0232 0446     		mov	r4, r0
 2973 0234 0028     		cmp	r0, #0
 2974 0236 54D1     		bne	.L214
 354:HW/FLASH/External_Flash/exFlash.c ****         FLASH_EX_CHECK(Flash_EX_Send_Byte((addr & 0X0000FF) >>  0));
 2975              		.loc 1 354 68 discriminator 2 view .LVU661
 355:HW/FLASH/External_Flash/exFlash.c ****         for(uint8_t i = 0; i < 256; ++i){
 2976              		.loc 1 355 9 discriminator 2 view .LVU662
 2977 0238 5FFA8AF0 		uxtb	r0, r10
 2978              	.LVL384:
ARM GAS  C:\Users\86157\AppData\Local\Temp\ccszuV1u.s 			page 64


 355:HW/FLASH/External_Flash/exFlash.c ****         for(uint8_t i = 0; i < 256; ++i){
 2979              		.loc 1 355 9 is_stmt 0 discriminator 2 view .LVU663
 2980 023c FFF7FEFF 		bl	Flash_EX_Send_Byte
 2981              	.LVL385:
 355:HW/FLASH/External_Flash/exFlash.c ****         for(uint8_t i = 0; i < 256; ++i){
 2982              		.loc 1 355 9 is_stmt 1 discriminator 2 view .LVU664
 2983 0240 8146     		mov	r9, r0
 2984 0242 0028     		cmp	r0, #0
 2985 0244 68D1     		bne	.L215
 2986              	.L192:
 2987              	.LVL386:
 2988              	.LBB5:
 357:HW/FLASH/External_Flash/exFlash.c ****             if(idx >= size) 
 2989              		.loc 1 357 13 view .LVU665
 357:HW/FLASH/External_Flash/exFlash.c ****             if(idx >= size) 
 2990              		.loc 1 357 17 is_stmt 0 view .LVU666
 2991 0246 09EB0523 		add	r3, r9, r5, lsl #8
 2992              	.LVL387:
 358:HW/FLASH/External_Flash/exFlash.c ****                 break;
 2993              		.loc 1 358 13 is_stmt 1 view .LVU667
 358:HW/FLASH/External_Flash/exFlash.c ****                 break;
 2994              		.loc 1 358 15 is_stmt 0 view .LVU668
 2995 024a 9E42     		cmp	r6, r3
 2996 024c 40F28480 		bls	.L193
 360:HW/FLASH/External_Flash/exFlash.c ****         }
 2997              		.loc 1 360 13 is_stmt 1 view .LVU669
 2998 0250 4344     		add	r3, r3, r8
 2999              	.LVL388:
 360:HW/FLASH/External_Flash/exFlash.c ****         }
 3000              		.loc 1 360 13 is_stmt 0 view .LVU670
 3001 0252 F85C     		ldrb	r0, [r7, r3]	@ zero_extendqisi2
 3002              	.LVL389:
 360:HW/FLASH/External_Flash/exFlash.c ****         }
 3003              		.loc 1 360 13 view .LVU671
 3004 0254 FFF7FEFF 		bl	Flash_EX_Send_Byte
 3005              	.LVL390:
 360:HW/FLASH/External_Flash/exFlash.c ****         }
 3006              		.loc 1 360 13 is_stmt 1 view .LVU672
 3007 0258 0446     		mov	r4, r0
 3008 025a 0028     		cmp	r0, #0
 3009 025c 6CD1     		bne	.L216
 360:HW/FLASH/External_Flash/exFlash.c ****         }
 3010              		.loc 1 360 57 discriminator 2 view .LVU673
 356:HW/FLASH/External_Flash/exFlash.c ****             idx = i + p * 256;
 3011              		.loc 1 356 37 discriminator 2 view .LVU674
 3012 025e 09F10109 		add	r9, r9, #1
 3013              	.LVL391:
 356:HW/FLASH/External_Flash/exFlash.c ****             idx = i + p * 256;
 3014              		.loc 1 356 37 is_stmt 0 discriminator 2 view .LVU675
 3015 0262 5FFA89F9 		uxtb	r9, r9
 3016              	.LVL392:
 356:HW/FLASH/External_Flash/exFlash.c ****             idx = i + p * 256;
 3017              		.loc 1 356 9 is_stmt 1 discriminator 2 view .LVU676
 357:HW/FLASH/External_Flash/exFlash.c ****             if(idx >= size) 
 3018              		.loc 1 357 17 is_stmt 0 discriminator 2 view .LVU677
 3019 0266 EEE7     		b	.L192
 3020              	.LVL393:
ARM GAS  C:\Users\86157\AppData\Local\Temp\ccszuV1u.s 			page 65


 3021              	.L209:
 357:HW/FLASH/External_Flash/exFlash.c ****             if(idx >= size) 
 3022              		.loc 1 357 17 discriminator 2 view .LVU678
 3023              	.LBE5:
 3024              	.LBE4:
 342:HW/FLASH/External_Flash/exFlash.c ****     src += count;
 3025              		.loc 1 342 5 is_stmt 1 discriminator 1 view .LVU679
 3026 0268 264B     		ldr	r3, .L218+4
 3027 026a 1B68     		ldr	r3, [r3]
 3028 026c D868     		ldr	r0, [r3, #12]
 3029              	.LVL394:
 342:HW/FLASH/External_Flash/exFlash.c ****     src += count;
 3030              		.loc 1 342 5 is_stmt 0 discriminator 1 view .LVU680
 3031 026e 04EB8402 		add	r2, r4, r4, lsl #2
 3032 0272 254B     		ldr	r3, .L218+8
 3033 0274 0093     		str	r3, [sp]
 3034 0276 4FF4AB73 		mov	r3, #342
 3035 027a 2649     		ldr	r1, .L218+20
 3036 027c 01EB8202 		add	r2, r1, r2, lsl #2
 3037 0280 2349     		ldr	r1, .L218+16
 3038 0282 FFF7FEFF 		bl	fprintf
 3039              	.LVL395:
 342:HW/FLASH/External_Flash/exFlash.c ****     src += count;
 3040              		.loc 1 342 5 is_stmt 1 discriminator 1 view .LVU681
 3041 0286 2BE7     		b	.L176
 3042              	.LVL396:
 3043              	.L211:
 3044              	.LBB7:
 350:HW/FLASH/External_Flash/exFlash.c ****         Flash_EX_CS_Low();
 3045              		.loc 1 350 9 discriminator 1 view .LVU682
 3046 0288 1E4B     		ldr	r3, .L218+4
 3047 028a 1B68     		ldr	r3, [r3]
 3048 028c D868     		ldr	r0, [r3, #12]
 3049              	.LVL397:
 350:HW/FLASH/External_Flash/exFlash.c ****         Flash_EX_CS_Low();
 3050              		.loc 1 350 9 is_stmt 0 discriminator 1 view .LVU683
 3051 028e 1E4B     		ldr	r3, .L218+8
 3052 0290 0093     		str	r3, [sp]
 3053 0292 4FF4AF73 		mov	r3, #350
 3054 0296 1421     		movs	r1, #20
 3055 0298 1E4A     		ldr	r2, .L218+20
 3056 029a 01FB0422 		mla	r2, r1, r4, r2
 3057 029e 1C49     		ldr	r1, .L218+16
 3058 02a0 FFF7FEFF 		bl	fprintf
 3059              	.LVL398:
 350:HW/FLASH/External_Flash/exFlash.c ****         Flash_EX_CS_Low();
 3060              		.loc 1 350 9 is_stmt 1 discriminator 1 view .LVU684
 3061 02a4 1CE7     		b	.L176
 3062              	.LVL399:
 3063              	.L212:
 352:HW/FLASH/External_Flash/exFlash.c ****         FLASH_EX_CHECK(Flash_EX_Send_Byte((addr & 0XFF0000) >> 16));
 3064              		.loc 1 352 9 discriminator 1 view .LVU685
 3065 02a6 174B     		ldr	r3, .L218+4
 3066 02a8 1B68     		ldr	r3, [r3]
 3067 02aa D868     		ldr	r0, [r3, #12]
 3068              	.LVL400:
 352:HW/FLASH/External_Flash/exFlash.c ****         FLASH_EX_CHECK(Flash_EX_Send_Byte((addr & 0XFF0000) >> 16));
ARM GAS  C:\Users\86157\AppData\Local\Temp\ccszuV1u.s 			page 66


 3069              		.loc 1 352 9 is_stmt 0 discriminator 1 view .LVU686
 3070 02ac 164B     		ldr	r3, .L218+8
 3071 02ae 0093     		str	r3, [sp]
 3072 02b0 4FF4B073 		mov	r3, #352
 3073 02b4 1421     		movs	r1, #20
 3074 02b6 174A     		ldr	r2, .L218+20
 3075 02b8 01FB0422 		mla	r2, r1, r4, r2
 3076 02bc 1449     		ldr	r1, .L218+16
 3077 02be FFF7FEFF 		bl	fprintf
 3078              	.LVL401:
 352:HW/FLASH/External_Flash/exFlash.c ****         FLASH_EX_CHECK(Flash_EX_Send_Byte((addr & 0XFF0000) >> 16));
 3079              		.loc 1 352 9 is_stmt 1 discriminator 1 view .LVU687
 3080 02c2 0DE7     		b	.L176
 3081              	.LVL402:
 3082              	.L213:
 353:HW/FLASH/External_Flash/exFlash.c ****         FLASH_EX_CHECK(Flash_EX_Send_Byte((addr & 0X00FF00) >>  8));
 3083              		.loc 1 353 9 discriminator 1 view .LVU688
 3084 02c4 0F4B     		ldr	r3, .L218+4
 3085 02c6 1B68     		ldr	r3, [r3]
 3086 02c8 D868     		ldr	r0, [r3, #12]
 3087              	.LVL403:
 353:HW/FLASH/External_Flash/exFlash.c ****         FLASH_EX_CHECK(Flash_EX_Send_Byte((addr & 0X00FF00) >>  8));
 3088              		.loc 1 353 9 is_stmt 0 discriminator 1 view .LVU689
 3089 02ca 0F4B     		ldr	r3, .L218+8
 3090 02cc 0093     		str	r3, [sp]
 3091 02ce 40F26113 		movw	r3, #353
 3092 02d2 1421     		movs	r1, #20
 3093 02d4 0F4A     		ldr	r2, .L218+20
 3094 02d6 01FB0422 		mla	r2, r1, r4, r2
 3095 02da 0D49     		ldr	r1, .L218+16
 3096 02dc FFF7FEFF 		bl	fprintf
 3097              	.LVL404:
 353:HW/FLASH/External_Flash/exFlash.c ****         FLASH_EX_CHECK(Flash_EX_Send_Byte((addr & 0X00FF00) >>  8));
 3098              		.loc 1 353 9 is_stmt 1 discriminator 1 view .LVU690
 3099 02e0 FEE6     		b	.L176
 3100              	.LVL405:
 3101              	.L214:
 354:HW/FLASH/External_Flash/exFlash.c ****         FLASH_EX_CHECK(Flash_EX_Send_Byte((addr & 0X0000FF) >>  0));
 3102              		.loc 1 354 9 discriminator 1 view .LVU691
 3103 02e2 084B     		ldr	r3, .L218+4
 3104 02e4 1B68     		ldr	r3, [r3]
 3105 02e6 D868     		ldr	r0, [r3, #12]
 3106              	.LVL406:
 354:HW/FLASH/External_Flash/exFlash.c ****         FLASH_EX_CHECK(Flash_EX_Send_Byte((addr & 0X0000FF) >>  0));
 3107              		.loc 1 354 9 is_stmt 0 discriminator 1 view .LVU692
 3108 02e8 074B     		ldr	r3, .L218+8
 3109 02ea 0093     		str	r3, [sp]
 3110 02ec 4FF4B173 		mov	r3, #354
 3111 02f0 1421     		movs	r1, #20
 3112 02f2 084A     		ldr	r2, .L218+20
 3113 02f4 01FB0422 		mla	r2, r1, r4, r2
 3114 02f8 0549     		ldr	r1, .L218+16
 3115 02fa FFF7FEFF 		bl	fprintf
 3116              	.LVL407:
 354:HW/FLASH/External_Flash/exFlash.c ****         FLASH_EX_CHECK(Flash_EX_Send_Byte((addr & 0X0000FF) >>  0));
 3117              		.loc 1 354 9 is_stmt 1 discriminator 1 view .LVU693
 3118 02fe EFE6     		b	.L176
ARM GAS  C:\Users\86157\AppData\Local\Temp\ccszuV1u.s 			page 67


 3119              	.L219:
 3120              		.align	2
 3121              	.L218:
 3122 0300 000C0140 		.word	1073810432
 3123 0304 00000000 		.word	_impure_ptr
 3124 0308 00000000 		.word	__FUNCTION__.1
 3125 030c 28000000 		.word	errInfo+40
 3126 0310 00000000 		.word	.LC1
 3127 0314 00000000 		.word	errInfo
 3128              	.LVL408:
 3129              	.L215:
 355:HW/FLASH/External_Flash/exFlash.c ****         for(uint8_t i = 0; i < 256; ++i){
 3130              		.loc 1 355 9 discriminator 1 view .LVU694
 3131 0318 284B     		ldr	r3, .L220
 3132 031a 1B68     		ldr	r3, [r3]
 3133 031c D868     		ldr	r0, [r3, #12]
 3134              	.LVL409:
 355:HW/FLASH/External_Flash/exFlash.c ****         for(uint8_t i = 0; i < 256; ++i){
 3135              		.loc 1 355 9 is_stmt 0 discriminator 1 view .LVU695
 3136 031e 284B     		ldr	r3, .L220+4
 3137 0320 0093     		str	r3, [sp]
 3138 0322 40F26313 		movw	r3, #355
 3139 0326 1421     		movs	r1, #20
 3140 0328 264A     		ldr	r2, .L220+8
 3141 032a 01FB0922 		mla	r2, r1, r9, r2
 3142 032e 2649     		ldr	r1, .L220+12
 3143 0330 FFF7FEFF 		bl	fprintf
 3144              	.LVL410:
 355:HW/FLASH/External_Flash/exFlash.c ****         for(uint8_t i = 0; i < 256; ++i){
 3145              		.loc 1 355 9 is_stmt 1 discriminator 1 view .LVU696
 3146 0334 4C46     		mov	r4, r9
 3147 0336 D3E6     		b	.L176
 3148              	.LVL411:
 3149              	.L216:
 3150              	.LBB6:
 360:HW/FLASH/External_Flash/exFlash.c ****         }
 3151              		.loc 1 360 13 discriminator 1 view .LVU697
 3152 0338 204B     		ldr	r3, .L220
 3153 033a 1B68     		ldr	r3, [r3]
 3154 033c D868     		ldr	r0, [r3, #12]
 3155              	.LVL412:
 360:HW/FLASH/External_Flash/exFlash.c ****         }
 3156              		.loc 1 360 13 is_stmt 0 discriminator 1 view .LVU698
 3157 033e 04EB8402 		add	r2, r4, r4, lsl #2
 3158 0342 1F4B     		ldr	r3, .L220+4
 3159 0344 0093     		str	r3, [sp]
 3160 0346 4FF4B473 		mov	r3, #360
 3161 034a 1E49     		ldr	r1, .L220+8
 3162 034c 01EB8202 		add	r2, r1, r2, lsl #2
 3163 0350 1D49     		ldr	r1, .L220+12
 3164 0352 FFF7FEFF 		bl	fprintf
 3165              	.LVL413:
 360:HW/FLASH/External_Flash/exFlash.c ****         }
 3166              		.loc 1 360 13 is_stmt 1 discriminator 1 view .LVU699
 3167 0356 C3E6     		b	.L176
 3168              	.LVL414:
 3169              	.L193:
ARM GAS  C:\Users\86157\AppData\Local\Temp\ccszuV1u.s 			page 68


 360:HW/FLASH/External_Flash/exFlash.c ****         }
 3170              		.loc 1 360 13 is_stmt 0 discriminator 1 view .LVU700
 3171              	.LBE6:
 362:HW/FLASH/External_Flash/exFlash.c ****         Flash_EX_CS_High();
 3172              		.loc 1 362 9 is_stmt 1 discriminator 2 view .LVU701
 362:HW/FLASH/External_Flash/exFlash.c ****         Flash_EX_CS_High();
 3173              		.loc 1 362 14 is_stmt 0 discriminator 2 view .LVU702
 3174 0358 0AF5807A 		add	r10, r10, #256
 3175              	.LVL415:
 363:HW/FLASH/External_Flash/exFlash.c ****     }
 3176              		.loc 1 363 9 is_stmt 1 discriminator 2 view .LVU703
 3177 035c 4FF48051 		mov	r1, #4096
 3178 0360 1A48     		ldr	r0, .L220+16
 3179              	.LVL416:
 363:HW/FLASH/External_Flash/exFlash.c ****     }
 3180              		.loc 1 363 9 is_stmt 0 discriminator 2 view .LVU704
 3181 0362 FFF7FEFF 		bl	GPIO_SetBits
 3182              	.LVL417:
 349:HW/FLASH/External_Flash/exFlash.c ****         FLASH_EX_CHECK(Flash_EX_Synchronize());
 3183              		.loc 1 349 36 is_stmt 1 discriminator 2 view .LVU705
 3184 0366 0135     		adds	r5, r5, #1
 3185              	.LVL418:
 349:HW/FLASH/External_Flash/exFlash.c ****         FLASH_EX_CHECK(Flash_EX_Synchronize());
 3186              		.loc 1 349 36 is_stmt 0 discriminator 2 view .LVU706
 3187 0368 45E7     		b	.L187
 3188              	.LVL419:
 3189              	.L210:
 349:HW/FLASH/External_Flash/exFlash.c ****         FLASH_EX_CHECK(Flash_EX_Synchronize());
 3190              		.loc 1 349 36 discriminator 2 view .LVU707
 3191              	.LBE7:
 365:HW/FLASH/External_Flash/exFlash.c **** 
 3192              		.loc 1 365 5 is_stmt 1 view .LVU708
 3193 036a FFF7FEFF 		bl	Flash_EX_Synchronize
 3194              	.LVL420:
 365:HW/FLASH/External_Flash/exFlash.c **** 
 3195              		.loc 1 365 5 view .LVU709
 3196 036e 0446     		mov	r4, r0
 3197 0370 A0B9     		cbnz	r0, .L217
 365:HW/FLASH/External_Flash/exFlash.c **** 
 3198              		.loc 1 365 43 discriminator 2 view .LVU710
 368:HW/FLASH/External_Flash/exFlash.c **** FLASH_EX_ERR_FLAG:
 3199              		.loc 1 368 5 discriminator 2 view .LVU711
 3200 0372 FFF7FEFF 		bl	Flash_EX_Write_Disable
 3201              	.LVL421:
 368:HW/FLASH/External_Flash/exFlash.c **** FLASH_EX_ERR_FLAG:
 3202              		.loc 1 368 5 discriminator 2 view .LVU712
 3203 0376 0446     		mov	r4, r0
 3204 0378 0028     		cmp	r0, #0
 3205 037a 3FF4B1AE 		beq	.L176
 368:HW/FLASH/External_Flash/exFlash.c **** FLASH_EX_ERR_FLAG:
 3206              		.loc 1 368 5 discriminator 1 view .LVU713
 3207 037e 0F4B     		ldr	r3, .L220
 3208 0380 1B68     		ldr	r3, [r3]
 3209 0382 D868     		ldr	r0, [r3, #12]
 3210              	.LVL422:
 368:HW/FLASH/External_Flash/exFlash.c **** FLASH_EX_ERR_FLAG:
 3211              		.loc 1 368 5 is_stmt 0 discriminator 1 view .LVU714
ARM GAS  C:\Users\86157\AppData\Local\Temp\ccszuV1u.s 			page 69


 3212 0384 0E4B     		ldr	r3, .L220+4
 3213 0386 0093     		str	r3, [sp]
 3214 0388 4FF4B873 		mov	r3, #368
 3215 038c 1421     		movs	r1, #20
 3216 038e 0D4A     		ldr	r2, .L220+8
 3217 0390 01FB0422 		mla	r2, r1, r4, r2
 3218 0394 0C49     		ldr	r1, .L220+12
 3219 0396 FFF7FEFF 		bl	fprintf
 3220              	.LVL423:
 368:HW/FLASH/External_Flash/exFlash.c **** FLASH_EX_ERR_FLAG:
 3221              		.loc 1 368 5 is_stmt 1 discriminator 1 view .LVU715
 3222 039a A1E6     		b	.L176
 3223              	.LVL424:
 3224              	.L217:
 365:HW/FLASH/External_Flash/exFlash.c **** 
 3225              		.loc 1 365 5 discriminator 1 view .LVU716
 3226 039c 074B     		ldr	r3, .L220
 3227 039e 1B68     		ldr	r3, [r3]
 3228 03a0 D868     		ldr	r0, [r3, #12]
 3229              	.LVL425:
 365:HW/FLASH/External_Flash/exFlash.c **** 
 3230              		.loc 1 365 5 is_stmt 0 discriminator 1 view .LVU717
 3231 03a2 074B     		ldr	r3, .L220+4
 3232 03a4 0093     		str	r3, [sp]
 3233 03a6 40F26D13 		movw	r3, #365
 3234 03aa 1421     		movs	r1, #20
 3235 03ac 054A     		ldr	r2, .L220+8
 3236 03ae 01FB0422 		mla	r2, r1, r4, r2
 3237 03b2 0549     		ldr	r1, .L220+12
 3238 03b4 FFF7FEFF 		bl	fprintf
 3239              	.LVL426:
 365:HW/FLASH/External_Flash/exFlash.c **** 
 3240              		.loc 1 365 5 is_stmt 1 discriminator 1 view .LVU718
 3241 03b8 92E6     		b	.L176
 3242              	.L221:
 3243 03ba 00BF     		.align	2
 3244              	.L220:
 3245 03bc 00000000 		.word	_impure_ptr
 3246 03c0 00000000 		.word	__FUNCTION__.1
 3247 03c4 00000000 		.word	errInfo
 3248 03c8 00000000 		.word	.LC1
 3249 03cc 000C0140 		.word	1073810432
 3250              		.cfi_endproc
 3251              	.LFE46:
 3253              		.section	.rodata.Flash_EX_Run.str1.4,"aMS",%progbits,1
 3254              		.align	2
 3255              	.LC4:
 3256 0000 45726173 		.ascii	"Erase sector success!\015\000"
 3256      65207365 
 3256      63746F72 
 3256      20737563 
 3256      63657373 
 3257 0017 00       		.align	2
 3258              	.LC6:
 3259 0018 52656164 		.ascii	"Read Data: %s\015\012\000"
 3259      20446174 
 3259      613A2025 
ARM GAS  C:\Users\86157\AppData\Local\Temp\ccszuV1u.s 			page 70


 3259      730D0A00 
 3260              		.align	2
 3261              	.LC5:
 3262 0028 41766120 		.ascii	"Ava Diana\000"
 3262      4469616E 
 3262      6100
 3263              		.section	.text.Flash_EX_Run,"ax",%progbits
 3264              		.align	1
 3265              		.global	Flash_EX_Run
 3266              		.syntax unified
 3267              		.thumb
 3268              		.thumb_func
 3270              	Flash_EX_Run:
 3271              	.LFB47:
 373:HW/FLASH/External_Flash/exFlash.c **** 
 374:HW/FLASH/External_Flash/exFlash.c **** extern void USART1_Init();
 375:HW/FLASH/External_Flash/exFlash.c **** 
 376:HW/FLASH/External_Flash/exFlash.c **** void Flash_EX_Run(){
 3272              		.loc 1 376 20 view -0
 3273              		.cfi_startproc
 3274              		@ args = 0, pretend = 0, frame = 200
 3275              		@ frame_needed = 0, uses_anonymous_args = 0
 3276 0000 00B5     		push	{lr}
 3277              	.LCFI55:
 3278              		.cfi_def_cfa_offset 4
 3279              		.cfi_offset 14, -4
 3280 0002 B5B0     		sub	sp, sp, #212
 3281              	.LCFI56:
 3282              		.cfi_def_cfa_offset 216
 377:HW/FLASH/External_Flash/exFlash.c ****     Flash_EX_Errors_t err = 0;
 3283              		.loc 1 377 5 view .LVU720
 3284              	.LVL427:
 378:HW/FLASH/External_Flash/exFlash.c **** 
 379:HW/FLASH/External_Flash/exFlash.c ****     /* ÂàùÂßãÂåñ */
 380:HW/FLASH/External_Flash/exFlash.c ****     delay_init();
 3285              		.loc 1 380 5 view .LVU721
 3286 0004 FFF7FEFF 		bl	delay_init
 3287              	.LVL428:
 381:HW/FLASH/External_Flash/exFlash.c ****     USART1_Init();  
 3288              		.loc 1 381 5 view .LVU722
 3289 0008 FFF7FEFF 		bl	USART1_Init
 3290              	.LVL429:
 382:HW/FLASH/External_Flash/exFlash.c ****     Flash_EX_Init();
 3291              		.loc 1 382 5 view .LVU723
 3292 000c FFF7FEFF 		bl	Flash_EX_Init
 3293              	.LVL430:
 383:HW/FLASH/External_Flash/exFlash.c **** 
 384:HW/FLASH/External_Flash/exFlash.c ****     /* Âî§ÈÜíËÆæÂ§á */
 385:HW/FLASH/External_Flash/exFlash.c ****     FLASH_EX_CHECK(Flash_EX_Wake_Up());
 3294              		.loc 1 385 5 view .LVU724
 3295 0010 FFF7FEFF 		bl	Flash_EX_Wake_Up
 3296              	.LVL431:
 3297              		.loc 1 385 5 view .LVU725
 3298 0014 0028     		cmp	r0, #0
 3299 0016 2FD1     		bne	.L230
 3300              		.loc 1 385 39 discriminator 2 view .LVU726
 386:HW/FLASH/External_Flash/exFlash.c **** 
ARM GAS  C:\Users\86157\AppData\Local\Temp\ccszuV1u.s 			page 71


 387:HW/FLASH/External_Flash/exFlash.c ****     /* È™åËØÅJEDECËÆæÂ§áID */
 388:HW/FLASH/External_Flash/exFlash.c ****     FLASH_EX_CHECK(Flash_EX_Check_JEDEC_ID());
 3301              		.loc 1 388 5 discriminator 2 view .LVU727
 3302 0018 FFF7FEFF 		bl	Flash_EX_Check_JEDEC_ID
 3303              	.LVL432:
 3304              		.loc 1 388 5 discriminator 2 view .LVU728
 3305 001c 0246     		mov	r2, r0
 3306 001e 0028     		cmp	r0, #0
 3307 0020 3DD1     		bne	.L231
 3308              		.loc 1 388 46 discriminator 2 view .LVU729
 389:HW/FLASH/External_Flash/exFlash.c **** 
 390:HW/FLASH/External_Flash/exFlash.c ****     /* Êì¶Èô§ÊâáÂå∫ */
 391:HW/FLASH/External_Flash/exFlash.c ****     uint32_t addr = FLASH_EX_SIZE - 100;
 3309              		.loc 1 391 5 discriminator 2 view .LVU730
 3310              	.LVL433:
 392:HW/FLASH/External_Flash/exFlash.c ****     FLASH_EX_CHECK(Flash_EX_Erase_Sector(addr));    // Êì¶Èô§ÊúÄÂêé‰∏Ä‰∏™ÊâáÂå∫
 3311              		.loc 1 392 5 discriminator 2 view .LVU731
 3312 0022 3F48     		ldr	r0, .L235
 3313              	.LVL434:
 3314              		.loc 1 392 5 is_stmt 0 discriminator 2 view .LVU732
 3315 0024 FFF7FEFF 		bl	Flash_EX_Erase_Sector
 3316              	.LVL435:
 3317              		.loc 1 392 5 is_stmt 1 discriminator 2 view .LVU733
 3318 0028 0246     		mov	r2, r0
 3319 002a 0028     		cmp	r0, #0
 3320 002c 47D1     		bne	.L232
 3321              		.loc 1 392 48 discriminator 2 view .LVU734
 393:HW/FLASH/External_Flash/exFlash.c ****     printf("Erase sector success!\r\n");
 3322              		.loc 1 393 5 discriminator 2 view .LVU735
 3323 002e 3D48     		ldr	r0, .L235+4
 3324              	.LVL436:
 3325              		.loc 1 393 5 is_stmt 0 discriminator 2 view .LVU736
 3326 0030 FFF7FEFF 		bl	puts
 3327              	.LVL437:
 394:HW/FLASH/External_Flash/exFlash.c **** 
 395:HW/FLASH/External_Flash/exFlash.c ****     /* ÂÜôÊï∞ÊçÆ */
 396:HW/FLASH/External_Flash/exFlash.c ****     const char src[100] = "Ava Diana";
 3328              		.loc 1 396 5 is_stmt 1 discriminator 2 view .LVU737
 3329              		.loc 1 396 16 is_stmt 0 discriminator 2 view .LVU738
 3330 0034 3C4A     		ldr	r2, .L235+8
 3331 0036 1BAB     		add	r3, sp, #108
 3332 0038 1068     		ldr	r0, [r2]	@ unaligned
 3333 003a 5168     		ldr	r1, [r2, #4]	@ unaligned
 3334 003c 03C3     		stmia	r3!, {r0, r1}
 3335 003e 1289     		ldrh	r2, [r2, #8]	@ unaligned
 3336 0040 1A80     		strh	r2, [r3]	@ unaligned
 3337 0042 5A22     		movs	r2, #90
 3338 0044 0021     		movs	r1, #0
 3339 0046 0DF17600 		add	r0, sp, #118
 3340 004a FFF7FEFF 		bl	memset
 3341              	.LVL438:
 397:HW/FLASH/External_Flash/exFlash.c ****     FLASH_EX_CHECK(Flash_EX_Write((uint8_t*)src, addr, 100));
 3342              		.loc 1 397 5 is_stmt 1 discriminator 2 view .LVU739
 3343 004e 6422     		movs	r2, #100
 3344 0050 3349     		ldr	r1, .L235
 3345 0052 1BA8     		add	r0, sp, #108
 3346 0054 FFF7FEFF 		bl	Flash_EX_Write
ARM GAS  C:\Users\86157\AppData\Local\Temp\ccszuV1u.s 			page 72


 3347              	.LVL439:
 3348              		.loc 1 397 5 discriminator 2 view .LVU740
 3349 0058 0246     		mov	r2, r0
 3350 005a 0028     		cmp	r0, #0
 3351 005c 3FD1     		bne	.L233
 3352              		.loc 1 397 61 discriminator 2 view .LVU741
 398:HW/FLASH/External_Flash/exFlash.c **** 
 399:HW/FLASH/External_Flash/exFlash.c ****     /* ËØªÂèñÊï∞ÊçÆ */
 400:HW/FLASH/External_Flash/exFlash.c ****     char buffer[100];
 3353              		.loc 1 400 5 discriminator 2 view .LVU742
 401:HW/FLASH/External_Flash/exFlash.c ****     FLASH_EX_CHECK(Flash_EX_Read((uint8_t*)buffer, addr, 100));
 3354              		.loc 1 401 5 discriminator 2 view .LVU743
 3355 005e 6422     		movs	r2, #100
 3356 0060 2F49     		ldr	r1, .L235
 3357 0062 02A8     		add	r0, sp, #8
 3358              	.LVL440:
 3359              		.loc 1 401 5 is_stmt 0 discriminator 2 view .LVU744
 3360 0064 FFF7FEFF 		bl	Flash_EX_Read
 3361              	.LVL441:
 3362              		.loc 1 401 5 is_stmt 1 discriminator 2 view .LVU745
 3363 0068 0246     		mov	r2, r0
 3364 006a 0028     		cmp	r0, #0
 3365 006c 47D1     		bne	.L234
 3366              		.loc 1 401 63 discriminator 2 view .LVU746
 402:HW/FLASH/External_Flash/exFlash.c ****     printf("Read Data: %s\r\n", buffer);
 3367              		.loc 1 402 5 discriminator 2 view .LVU747
 3368 006e 02A9     		add	r1, sp, #8
 3369 0070 2E48     		ldr	r0, .L235+12
 3370              	.LVL442:
 3371              		.loc 1 402 5 is_stmt 0 discriminator 2 view .LVU748
 3372 0072 FFF7FEFF 		bl	printf
 3373              	.LVL443:
 403:HW/FLASH/External_Flash/exFlash.c **** 
 404:HW/FLASH/External_Flash/exFlash.c **** FLASH_EX_ERR_FLAG:
 405:HW/FLASH/External_Flash/exFlash.c ****     return;
 3374              		.loc 1 405 5 is_stmt 1 discriminator 2 view .LVU749
 3375 0076 0FE0     		b	.L222
 3376              	.LVL444:
 3377              	.L230:
 3378              		.loc 1 405 5 is_stmt 0 discriminator 2 view .LVU750
 3379 0078 0246     		mov	r2, r0
 385:HW/FLASH/External_Flash/exFlash.c **** 
 3380              		.loc 1 385 5 is_stmt 1 discriminator 1 view .LVU751
 3381 007a 2D4B     		ldr	r3, .L235+16
 3382 007c 1B68     		ldr	r3, [r3]
 3383 007e D868     		ldr	r0, [r3, #12]
 3384              	.LVL445:
 385:HW/FLASH/External_Flash/exFlash.c **** 
 3385              		.loc 1 385 5 is_stmt 0 discriminator 1 view .LVU752
 3386 0080 02EB8202 		add	r2, r2, r2, lsl #2
 3387 0084 2B4B     		ldr	r3, .L235+20
 3388 0086 0093     		str	r3, [sp]
 3389 0088 40F28113 		movw	r3, #385
 3390 008c 2A49     		ldr	r1, .L235+24
 3391 008e 01EB8202 		add	r2, r1, r2, lsl #2
 3392 0092 2A49     		ldr	r1, .L235+28
 3393 0094 FFF7FEFF 		bl	fprintf
ARM GAS  C:\Users\86157\AppData\Local\Temp\ccszuV1u.s 			page 73


 3394              	.LVL446:
 385:HW/FLASH/External_Flash/exFlash.c **** 
 3395              		.loc 1 385 5 is_stmt 1 discriminator 1 view .LVU753
 3396              	.L224:
 3397              	.L222:
 406:HW/FLASH/External_Flash/exFlash.c **** }...
 3398              		.loc 1 406 1 is_stmt 0 view .LVU754
 3399 0098 35B0     		add	sp, sp, #212
 3400              	.LCFI57:
 3401              		.cfi_remember_state
 3402              		.cfi_def_cfa_offset 4
 3403              		@ sp needed
 3404 009a 5DF804FB 		ldr	pc, [sp], #4
 3405              	.LVL447:
 3406              	.L231:
 3407              	.LCFI58:
 3408              		.cfi_restore_state
 388:HW/FLASH/External_Flash/exFlash.c ****     FLASH_EX_CHECK(Flash_EX_Check_JEDEC_ID());
 3409              		.loc 1 388 5 is_stmt 1 discriminator 1 view .LVU755
 3410 009e 244B     		ldr	r3, .L235+16
 3411 00a0 1B68     		ldr	r3, [r3]
 3412 00a2 D868     		ldr	r0, [r3, #12]
 3413              	.LVL448:
 388:HW/FLASH/External_Flash/exFlash.c ****     FLASH_EX_CHECK(Flash_EX_Check_JEDEC_ID());
 3414              		.loc 1 388 5 is_stmt 0 discriminator 1 view .LVU756
 3415 00a4 02EB8202 		add	r2, r2, r2, lsl #2
 3416 00a8 224B     		ldr	r3, .L235+20
 3417 00aa 0093     		str	r3, [sp]
 3418 00ac 4FF4C273 		mov	r3, #388
 3419 00b0 2149     		ldr	r1, .L235+24
 3420 00b2 01EB8202 		add	r2, r1, r2, lsl #2
 3421 00b6 2149     		ldr	r1, .L235+28
 3422 00b8 FFF7FEFF 		bl	fprintf
 3423              	.LVL449:
 388:HW/FLASH/External_Flash/exFlash.c ****     FLASH_EX_CHECK(Flash_EX_Check_JEDEC_ID());
 3424              		.loc 1 388 5 is_stmt 1 discriminator 1 view .LVU757
 3425 00bc ECE7     		b	.L222
 3426              	.LVL450:
 3427              	.L232:
 392:HW/FLASH/External_Flash/exFlash.c ****     FLASH_EX_CHECK(Flash_EX_Erase_Sector(addr));    // Êì¶Èô§ÊúÄÂêé‰∏Ä‰∏™ÊâáÂå∫
 3428              		.loc 1 392 5 discriminator 1 view .LVU758
 3429 00be 1C4B     		ldr	r3, .L235+16
 3430 00c0 1B68     		ldr	r3, [r3]
 3431 00c2 D868     		ldr	r0, [r3, #12]
 3432              	.LVL451:
 392:HW/FLASH/External_Flash/exFlash.c ****     FLASH_EX_CHECK(Flash_EX_Erase_Sector(addr));    // Êì¶Èô§ÊúÄÂêé‰∏Ä‰∏™ÊâáÂå∫
 3433              		.loc 1 392 5 is_stmt 0 discriminator 1 view .LVU759
 3434 00c4 02EB8202 		add	r2, r2, r2, lsl #2
 3435 00c8 1A4B     		ldr	r3, .L235+20
 3436 00ca 0093     		str	r3, [sp]
 3437 00cc 4FF4C473 		mov	r3, #392
 3438 00d0 1949     		ldr	r1, .L235+24
 3439 00d2 01EB8202 		add	r2, r1, r2, lsl #2
 3440 00d6 1949     		ldr	r1, .L235+28
 3441 00d8 FFF7FEFF 		bl	fprintf
 3442              	.LVL452:
 392:HW/FLASH/External_Flash/exFlash.c ****     FLASH_EX_CHECK(Flash_EX_Erase_Sector(addr));    // Êì¶Èô§ÊúÄÂêé‰∏Ä‰∏™ÊâáÂå∫
ARM GAS  C:\Users\86157\AppData\Local\Temp\ccszuV1u.s 			page 74


 3443              		.loc 1 392 5 is_stmt 1 discriminator 1 view .LVU760
 3444 00dc DCE7     		b	.L222
 3445              	.LVL453:
 3446              	.L233:
 397:HW/FLASH/External_Flash/exFlash.c ****     FLASH_EX_CHECK(Flash_EX_Write((uint8_t*)src, addr, 100));
 3447              		.loc 1 397 5 discriminator 1 view .LVU761
 3448 00de 144B     		ldr	r3, .L235+16
 3449 00e0 1B68     		ldr	r3, [r3]
 3450 00e2 D868     		ldr	r0, [r3, #12]
 3451              	.LVL454:
 397:HW/FLASH/External_Flash/exFlash.c ****     FLASH_EX_CHECK(Flash_EX_Write((uint8_t*)src, addr, 100));
 3452              		.loc 1 397 5 is_stmt 0 discriminator 1 view .LVU762
 3453 00e4 02EB8202 		add	r2, r2, r2, lsl #2
 3454 00e8 124B     		ldr	r3, .L235+20
 3455 00ea 0093     		str	r3, [sp]
 3456 00ec 40F28D13 		movw	r3, #397
 3457 00f0 1149     		ldr	r1, .L235+24
 3458 00f2 01EB8202 		add	r2, r1, r2, lsl #2
 3459 00f6 1149     		ldr	r1, .L235+28
 3460 00f8 FFF7FEFF 		bl	fprintf
 3461              	.LVL455:
 397:HW/FLASH/External_Flash/exFlash.c ****     FLASH_EX_CHECK(Flash_EX_Write((uint8_t*)src, addr, 100));
 3462              		.loc 1 397 5 is_stmt 1 discriminator 1 view .LVU763
 3463 00fc CCE7     		b	.L222
 3464              	.LVL456:
 3465              	.L234:
 401:HW/FLASH/External_Flash/exFlash.c ****     FLASH_EX_CHECK(Flash_EX_Read((uint8_t*)buffer, addr, 100));
 3466              		.loc 1 401 5 discriminator 1 view .LVU764
 3467 00fe 0C4B     		ldr	r3, .L235+16
 3468 0100 1B68     		ldr	r3, [r3]
 3469 0102 D868     		ldr	r0, [r3, #12]
 3470              	.LVL457:
 401:HW/FLASH/External_Flash/exFlash.c ****     FLASH_EX_CHECK(Flash_EX_Read((uint8_t*)buffer, addr, 100));
 3471              		.loc 1 401 5 is_stmt 0 discriminator 1 view .LVU765
 3472 0104 02EB8202 		add	r2, r2, r2, lsl #2
 3473 0108 0A4B     		ldr	r3, .L235+20
 3474 010a 0093     		str	r3, [sp]
 3475 010c 40F29113 		movw	r3, #401
 3476 0110 0949     		ldr	r1, .L235+24
 3477 0112 01EB8202 		add	r2, r1, r2, lsl #2
 3478 0116 0949     		ldr	r1, .L235+28
 3479 0118 FFF7FEFF 		bl	fprintf
 3480              	.LVL458:
 401:HW/FLASH/External_Flash/exFlash.c ****     FLASH_EX_CHECK(Flash_EX_Read((uint8_t*)buffer, addr, 100));
 3481              		.loc 1 401 5 is_stmt 1 discriminator 1 view .LVU766
 3482 011c BCE7     		b	.L222
 3483              	.L236:
 3484 011e 00BF     		.align	2
 3485              	.L235:
 3486 0120 9CFFFF07 		.word	134217628
 3487 0124 00000000 		.word	.LC4
 3488 0128 28000000 		.word	.LC5
 3489 012c 18000000 		.word	.LC6
 3490 0130 00000000 		.word	_impure_ptr
 3491 0134 00000000 		.word	__FUNCTION__.0
 3492 0138 00000000 		.word	errInfo
 3493 013c 00000000 		.word	.LC1
ARM GAS  C:\Users\86157\AppData\Local\Temp\ccszuV1u.s 			page 75


 3494              		.cfi_endproc
 3495              	.LFE47:
 3497              		.section	.rodata.__FUNCTION__.0,"a"
 3498              		.align	2
 3501              	__FUNCTION__.0:
 3502 0000 466C6173 		.ascii	"Flash_EX_Run\000"
 3502      685F4558 
 3502      5F52756E 
 3502      00
 3503              		.section	.rodata.__FUNCTION__.1,"a"
 3504              		.align	2
 3507              	__FUNCTION__.1:
 3508 0000 466C6173 		.ascii	"Flash_EX_Write\000"
 3508      685F4558 
 3508      5F577269 
 3508      746500
 3509              		.section	.rodata.__FUNCTION__.2,"a"
 3510              		.align	2
 3513              	__FUNCTION__.2:
 3514 0000 466C6173 		.ascii	"Flash_EX_Erase_NonEmpty\000"
 3514      685F4558 
 3514      5F457261 
 3514      73655F4E 
 3514      6F6E456D 
 3515              		.section	.rodata.__FUNCTION__.3,"a"
 3516              		.align	2
 3519              	__FUNCTION__.3:
 3520 0000 466C6173 		.ascii	"Flash_EX_Is_Empty\000"
 3520      685F4558 
 3520      5F49735F 
 3520      456D7074 
 3520      7900
 3521              		.section	.rodata.__FUNCTION__.4,"a"
 3522              		.align	2
 3525              	__FUNCTION__.4:
 3526 0000 466C6173 		.ascii	"Flash_EX_Read\000"
 3526      685F4558 
 3526      5F526561 
 3526      6400
 3527              		.section	.rodata.__FUNCTION__.5,"a"
 3528              		.align	2
 3531              	__FUNCTION__.5:
 3532 0000 466C6173 		.ascii	"Flash_EX_Erase_Sector\000"
 3532      685F4558 
 3532      5F457261 
 3532      73655F53 
 3532      6563746F 
 3533              		.section	.rodata.__FUNCTION__.6,"a"
 3534              		.align	2
 3537              	__FUNCTION__.6:
 3538 0000 466C6173 		.ascii	"Flash_EX_Read_SR\000"
 3538      685F4558 
 3538      5F526561 
 3538      645F5352 
 3538      00
 3539              		.section	.rodata.__FUNCTION__.7,"a"
 3540              		.align	2
ARM GAS  C:\Users\86157\AppData\Local\Temp\ccszuV1u.s 			page 76


 3543              	__FUNCTION__.7:
 3544 0000 466C6173 		.ascii	"Flash_EX_Write_Disable\000"
 3544      685F4558 
 3544      5F577269 
 3544      74655F44 
 3544      69736162 
 3545              		.section	.rodata.__FUNCTION__.8,"a"
 3546              		.align	2
 3549              	__FUNCTION__.8:
 3550 0000 466C6173 		.ascii	"Flash_EX_Write_Enable\000"
 3550      685F4558 
 3550      5F577269 
 3550      74655F45 
 3550      6E61626C 
 3551              		.section	.rodata.__FUNCTION__.9,"a"
 3552              		.align	2
 3555              	__FUNCTION__.9:
 3556 0000 466C6173 		.ascii	"Flash_EX_Check_JEDEC_ID\000"
 3556      685F4558 
 3556      5F436865 
 3556      636B5F4A 
 3556      45444543 
 3557              		.section	.rodata.__FUNCTION__.10,"a"
 3558              		.align	2
 3561              	__FUNCTION__.10:
 3562 0000 466C6173 		.ascii	"Flash_EX_Wake_Up\000"
 3562      685F4558 
 3562      5F57616B 
 3562      655F5570 
 3562      00
 3563              		.section	.rodata.__FUNCTION__.11,"a"
 3564              		.align	2
 3567              	__FUNCTION__.11:
 3568 0000 466C6173 		.ascii	"Flash_EX_Recieve_Byte\000"
 3568      685F4558 
 3568      5F526563 
 3568      69657665 
 3568      5F427974 
 3569              		.section	.rodata.__FUNCTION__.12,"a"
 3570              		.align	2
 3573              	__FUNCTION__.12:
 3574 0000 466C6173 		.ascii	"Flash_EX_Send_Byte\000"
 3574      685F4558 
 3574      5F53656E 
 3574      645F4279 
 3574      746500
 3575              		.section	.rodata.__FUNCTION__.13,"a"
 3576              		.align	2
 3579              	__FUNCTION__.13:
 3580 0000 5F5F466C 		.ascii	"__Flash_EX_Byte_Impl\000"
 3580      6173685F 
 3580      45585F42 
 3580      7974655F 
 3580      496D706C 
 3581              		.section	.data.errInfo,"aw"
 3582              		.align	2
 3585              	errInfo:
ARM GAS  C:\Users\86157\AppData\Local\Temp\ccszuV1u.s 			page 77


 3586 0000 73756363 		.ascii	"success\000"
 3586      65737300 
 3587 0008 00000000 		.space	12
 3587      00000000 
 3587      00000000 
 3588 0014 74696D65 		.ascii	"time out\000"
 3588      206F7574 
 3588      00
 3589 001d 00000000 		.space	11
 3589      00000000 
 3589      000000
 3590 0028 6F757420 		.ascii	"out of bounds\000"
 3590      6F662062 
 3590      6F756E64 
 3590      7300
 3591 0036 00000000 		.space	6
 3591      0000
 3592              		.text
 3593              	.Letext0:
 3594              		.file 2 "e:\\windows\\programs\\arm-gnu-toolchain-12.2.mpacbti-bet1-mingw-w64-i686-arm-none-eabi\\
 3595              		.file 3 "e:\\windows\\programs\\arm-gnu-toolchain-12.2.mpacbti-bet1-mingw-w64-i686-arm-none-eabi\\
 3596              		.file 4 "e:\\windows\\programs\\arm-gnu-toolchain-12.2.mpacbti-bet1-mingw-w64-i686-arm-none-eabi\\
 3597              		.file 5 "e:\\windows\\programs\\arm-gnu-toolchain-12.2.mpacbti-bet1-mingw-w64-i686-arm-none-eabi\\
 3598              		.file 6 "e:\\windows\\programs\\arm-gnu-toolchain-12.2.mpacbti-bet1-mingw-w64-i686-arm-none-eabi\\
 3599              		.file 7 "e:\\windows\\programs\\arm-gnu-toolchain-12.2.mpacbti-bet1-mingw-w64-i686-arm-none-eabi\\
 3600              		.file 8 "e:\\windows\\programs\\arm-gnu-toolchain-12.2.mpacbti-bet1-mingw-w64-i686-arm-none-eabi\\
 3601              		.file 9 "USER/stm32f10x.h"
 3602              		.file 10 "STM32F10x_FWLib/inc/stm32f10x_gpio.h"
 3603              		.file 11 "STM32F10x_FWLib/inc/stm32f10x_spi.h"
 3604              		.file 12 "SYSTEM/delay/delay.h"
 3605              		.file 13 "STM32F10x_FWLib/inc/stm32f10x_rcc.h"
 3606              		.file 14 "<built-in>"
ARM GAS  C:\Users\86157\AppData\Local\Temp\ccszuV1u.s 			page 78

