ARM GAS  C:\Users\86157\AppData\Local\Temp\cczTqZVF.s 			page 1


   1              		.cpu cortex-m3
   2              		.arch armv7-m
   3              		.fpu softvfp
   4              		.eabi_attribute 20, 1
   5              		.eabi_attribute 21, 1
   6              		.eabi_attribute 23, 3
   7              		.eabi_attribute 24, 1
   8              		.eabi_attribute 25, 1
   9              		.eabi_attribute 26, 1
  10              		.eabi_attribute 30, 1
  11              		.eabi_attribute 34, 1
  12              		.eabi_attribute 18, 4
  13              		.file	"tim.c"
  14              		.text
  15              	.Ltext0:
  16              		.cfi_sections	.debug_frame
  17              		.file 1 "HW/TIM/IT/tim.c"
  18              		.section	.text.TIM3_Init,"ax",%progbits
  19              		.align	1
  20              		.global	TIM3_Init
  21              		.syntax unified
  22              		.thumb
  23              		.thumb_func
  25              	TIM3_Init:
  26              	.LVL0:
  27              	.LFB29:
   1:HW/TIM/IT/tim.c **** #include"stm32f10x.h"
   2:HW/TIM/IT/tim.c **** #include"LED.h"
   3:HW/TIM/IT/tim.c **** #include"delay.h"
   4:HW/TIM/IT/tim.c **** #include"stm32f10x_tim.h"
   5:HW/TIM/IT/tim.c **** 
   6:HW/TIM/IT/tim.c **** void TIM3_Init(uint16_t TIM_Period, uint16_t TIM_Prescaler){
  28              		.loc 1 6 60 view -0
  29              		.cfi_startproc
  30              		@ args = 0, pretend = 0, frame = 16
  31              		@ frame_needed = 0, uses_anonymous_args = 0
  32              		.loc 1 6 60 is_stmt 0 view .LVU1
  33 0000 30B5     		push	{r4, r5, lr}
  34              	.LCFI0:
  35              		.cfi_def_cfa_offset 12
  36              		.cfi_offset 4, -12
  37              		.cfi_offset 5, -8
  38              		.cfi_offset 14, -4
  39 0002 85B0     		sub	sp, sp, #20
  40              	.LCFI1:
  41              		.cfi_def_cfa_offset 32
  42 0004 0546     		mov	r5, r0
  43 0006 0C46     		mov	r4, r1
   7:HW/TIM/IT/tim.c ****     /* ‰ΩøËÉΩÂÆöÊó∂Âô®Âô®Êó∂Èíü */
   8:HW/TIM/IT/tim.c ****     RCC_APB1PeriphClockCmd(RCC_APB1Periph_TIM3, ENABLE);
  44              		.loc 1 8 5 is_stmt 1 view .LVU2
  45 0008 0121     		movs	r1, #1
  46              	.LVL1:
  47              		.loc 1 8 5 is_stmt 0 view .LVU3
  48 000a 0220     		movs	r0, #2
  49              	.LVL2:
  50              		.loc 1 8 5 view .LVU4
ARM GAS  C:\Users\86157\AppData\Local\Temp\cczTqZVF.s 			page 2


  51 000c FFF7FEFF 		bl	RCC_APB1PeriphClockCmd
  52              	.LVL3:
   9:HW/TIM/IT/tim.c ****     /* ÈÖçÁΩÆÂÆöÊó∂Âô® */
  10:HW/TIM/IT/tim.c ****     TIM_TimeBaseInitTypeDef timeBaseDef;
  53              		.loc 1 10 5 is_stmt 1 view .LVU5
  11:HW/TIM/IT/tim.c ****     timeBaseDef.TIM_CounterMode         = TIM_CounterMode_Down; // Âêë‰∏ãËÆ°Êï∞
  54              		.loc 1 11 5 view .LVU6
  55              		.loc 1 11 41 is_stmt 0 view .LVU7
  56 0010 1023     		movs	r3, #16
  57 0012 ADF80630 		strh	r3, [sp, #6]	@ movhi
  12:HW/TIM/IT/tim.c ****     timeBaseDef.TIM_Period              = TIM_Period;           // ÈáçË£ÖËΩΩÂÄº
  58              		.loc 1 12 5 is_stmt 1 view .LVU8
  59              		.loc 1 12 41 is_stmt 0 view .LVU9
  60 0016 ADF80850 		strh	r5, [sp, #8]	@ movhi
  13:HW/TIM/IT/tim.c ****     timeBaseDef.TIM_Prescaler           = TIM_Prescaler;        // PSCÈ¢ÑÂàÜÈ¢ëÁ≥ªÊï∞
  61              		.loc 1 13 5 is_stmt 1 view .LVU10
  62              		.loc 1 13 41 is_stmt 0 view .LVU11
  63 001a ADF80440 		strh	r4, [sp, #4]	@ movhi
  14:HW/TIM/IT/tim.c ****     timeBaseDef.TIM_ClockDivision       = TIM_CKD_DIV1;         // ÈááÊ†∑È¢ëÁéáÂàÜÈ¢ëÔºàÊöÇÊó∂Áî®‰∏
  64              		.loc 1 14 5 is_stmt 1 view .LVU12
  65              		.loc 1 14 41 is_stmt 0 view .LVU13
  66 001e 0023     		movs	r3, #0
  67 0020 ADF80A30 		strh	r3, [sp, #10]	@ movhi
  15:HW/TIM/IT/tim.c ****     timeBaseDef.TIM_RepetitionCounter   = 0X00;                 // PWMËæìÂÖ•Áõ∏ÂÖ≥Á≥ªÊï∞ÔºàÊöÇÊó∂Áî
  68              		.loc 1 15 5 is_stmt 1 view .LVU14
  69              		.loc 1 15 41 is_stmt 0 view .LVU15
  70 0024 8DF80C30 		strb	r3, [sp, #12]
  16:HW/TIM/IT/tim.c ****     TIM_TimeBaseInit(TIM3, &timeBaseDef);
  71              		.loc 1 16 5 is_stmt 1 view .LVU16
  72 0028 0E4C     		ldr	r4, .L3
  73 002a 01A9     		add	r1, sp, #4
  74 002c 2046     		mov	r0, r4
  75 002e FFF7FEFF 		bl	TIM_TimeBaseInit
  76              	.LVL4:
  17:HW/TIM/IT/tim.c ****     /* ‰ΩøËÉΩÊõ¥Êñ∞‰∏≠Êñ≠ */
  18:HW/TIM/IT/tim.c ****     TIM_ITConfig(TIM3, TIM_IT_Update, ENABLE);
  77              		.loc 1 18 5 view .LVU17
  78 0032 0122     		movs	r2, #1
  79 0034 1146     		mov	r1, r2
  80 0036 2046     		mov	r0, r4
  81 0038 FFF7FEFF 		bl	TIM_ITConfig
  82              	.LVL5:
  19:HW/TIM/IT/tim.c ****     /* ÈÖçÁΩÆ‰∏≠Êñ≠ */
  20:HW/TIM/IT/tim.c ****     NVIC_InitTypeDef nvicDef;
  83              		.loc 1 20 5 view .LVU18
  21:HW/TIM/IT/tim.c ****     nvicDef.NVIC_IRQChannel = TIM3_IRQn;
  84              		.loc 1 21 5 view .LVU19
  85              		.loc 1 21 29 is_stmt 0 view .LVU20
  86 003c 1D23     		movs	r3, #29
  87 003e 8DF80030 		strb	r3, [sp]
  22:HW/TIM/IT/tim.c ****     nvicDef.NVIC_IRQChannelCmd = ENABLE;
  88              		.loc 1 22 5 is_stmt 1 view .LVU21
  89              		.loc 1 22 32 is_stmt 0 view .LVU22
  90 0042 0125     		movs	r5, #1
  91 0044 8DF80350 		strb	r5, [sp, #3]
  23:HW/TIM/IT/tim.c ****     nvicDef.NVIC_IRQChannelPreemptionPriority = 3;
  92              		.loc 1 23 5 is_stmt 1 view .LVU23
ARM GAS  C:\Users\86157\AppData\Local\Temp\cczTqZVF.s 			page 3


  93              		.loc 1 23 47 is_stmt 0 view .LVU24
  94 0048 0323     		movs	r3, #3
  95 004a 8DF80130 		strb	r3, [sp, #1]
  24:HW/TIM/IT/tim.c ****     nvicDef.NVIC_IRQChannelSubPriority = 3;
  96              		.loc 1 24 5 is_stmt 1 view .LVU25
  97              		.loc 1 24 40 is_stmt 0 view .LVU26
  98 004e 8DF80230 		strb	r3, [sp, #2]
  25:HW/TIM/IT/tim.c ****     NVIC_Init(&nvicDef);
  99              		.loc 1 25 5 is_stmt 1 view .LVU27
 100 0052 6846     		mov	r0, sp
 101 0054 FFF7FEFF 		bl	NVIC_Init
 102              	.LVL6:
  26:HW/TIM/IT/tim.c ****     /* ‰ΩøËÉΩÂÆöÊó∂Âô® */
  27:HW/TIM/IT/tim.c ****     TIM_Cmd(TIM3, ENABLE);
 103              		.loc 1 27 5 view .LVU28
 104 0058 2946     		mov	r1, r5
 105 005a 2046     		mov	r0, r4
 106 005c FFF7FEFF 		bl	TIM_Cmd
 107              	.LVL7:
  28:HW/TIM/IT/tim.c **** }
 108              		.loc 1 28 1 is_stmt 0 view .LVU29
 109 0060 05B0     		add	sp, sp, #20
 110              	.LCFI2:
 111              		.cfi_def_cfa_offset 12
 112              		@ sp needed
 113 0062 30BD     		pop	{r4, r5, pc}
 114              	.L4:
 115              		.align	2
 116              	.L3:
 117 0064 00040040 		.word	1073742848
 118              		.cfi_endproc
 119              	.LFE29:
 121              		.section	.text.TIM3_IRQHandler,"ax",%progbits
 122              		.align	1
 123              		.global	TIM3_IRQHandler
 124              		.syntax unified
 125              		.thumb
 126              		.thumb_func
 128              	TIM3_IRQHandler:
 129              	.LFB30:
  29:HW/TIM/IT/tim.c **** 
  30:HW/TIM/IT/tim.c **** void TIM3_IRQHandler(){
 130              		.loc 1 30 23 is_stmt 1 view -0
 131              		.cfi_startproc
 132              		@ args = 0, pretend = 0, frame = 0
 133              		@ frame_needed = 0, uses_anonymous_args = 0
 134 0000 08B5     		push	{r3, lr}
 135              	.LCFI3:
 136              		.cfi_def_cfa_offset 8
 137              		.cfi_offset 3, -8
 138              		.cfi_offset 14, -4
  31:HW/TIM/IT/tim.c ****     /* Âà§Êñ≠‰∏≠Êñ≠Á±ªÂûã */ 
  32:HW/TIM/IT/tim.c ****     if(TIM_GetITStatus(TIM3, TIM_IT_Update) == SET){   
 139              		.loc 1 32 5 view .LVU31
 140              		.loc 1 32 8 is_stmt 0 view .LVU32
 141 0002 0121     		movs	r1, #1
 142 0004 0948     		ldr	r0, .L9
ARM GAS  C:\Users\86157\AppData\Local\Temp\cczTqZVF.s 			page 4


 143 0006 FFF7FEFF 		bl	TIM_GetITStatus
 144              	.LVL8:
 145              		.loc 1 32 7 view .LVU33
 146 000a 0128     		cmp	r0, #1
 147 000c 00D0     		beq	.L8
 148              	.L5:
  33:HW/TIM/IT/tim.c ****         /* LED0ÁøªËΩ¨ */
  34:HW/TIM/IT/tim.c ****         LED0_REVERT();
  35:HW/TIM/IT/tim.c ****         /* Ê∏ÖÈô§‰∏≠Êñ≠Ê†áÂøó */
  36:HW/TIM/IT/tim.c ****         TIM_ClearITPendingBit(TIM3, TIM_IT_Update);
  37:HW/TIM/IT/tim.c ****     }
  38:HW/TIM/IT/tim.c **** }
 149              		.loc 1 38 1 view .LVU34
 150 000e 08BD     		pop	{r3, pc}
 151              	.L8:
  34:HW/TIM/IT/tim.c ****         /* Ê∏ÖÈô§‰∏≠Êñ≠Ê†áÂøó */
 152              		.loc 1 34 9 is_stmt 1 view .LVU35
 153 0010 074A     		ldr	r2, .L9+4
 154 0012 D2F89431 		ldr	r3, [r2, #404]
 155 0016 B3FA83F3 		clz	r3, r3
 156 001a 5B09     		lsrs	r3, r3, #5
 157 001c C2F89431 		str	r3, [r2, #404]
  34:HW/TIM/IT/tim.c ****         /* Ê∏ÖÈô§‰∏≠Êñ≠Ê†áÂøó */
 158              		.loc 1 34 22 view .LVU36
  36:HW/TIM/IT/tim.c ****     }
 159              		.loc 1 36 9 view .LVU37
 160 0020 0121     		movs	r1, #1
 161 0022 0248     		ldr	r0, .L9
 162 0024 FFF7FEFF 		bl	TIM_ClearITPendingBit
 163              	.LVL9:
 164              		.loc 1 38 1 is_stmt 0 view .LVU38
 165 0028 F1E7     		b	.L5
 166              	.L10:
 167 002a 00BF     		.align	2
 168              	.L9:
 169 002c 00040040 		.word	1073742848
 170 0030 00802142 		.word	1109491712
 171              		.cfi_endproc
 172              	.LFE30:
 174              		.section	.text.TIM3_Run,"ax",%progbits
 175              		.align	1
 176              		.global	TIM3_Run
 177              		.syntax unified
 178              		.thumb
 179              		.thumb_func
 181              	TIM3_Run:
 182              	.LFB31:
  39:HW/TIM/IT/tim.c **** 
  40:HW/TIM/IT/tim.c **** /* ÂÆöÊó∂Âô®‰∏≠Êñ≠ÂÆûÈ™å */
  41:HW/TIM/IT/tim.c **** void TIM3_Run(){
 183              		.loc 1 41 16 is_stmt 1 view -0
 184              		.cfi_startproc
 185              		@ Volatile: function does not return.
 186              		@ args = 0, pretend = 0, frame = 0
 187              		@ frame_needed = 0, uses_anonymous_args = 0
 188 0000 08B5     		push	{r3, lr}
 189              	.LCFI4:
ARM GAS  C:\Users\86157\AppData\Local\Temp\cczTqZVF.s 			page 5


 190              		.cfi_def_cfa_offset 8
 191              		.cfi_offset 3, -8
 192              		.cfi_offset 14, -4
  42:HW/TIM/IT/tim.c ****     /* ‰∏≠Êñ≠‰ºòÂÖàÁ∫ßÂàÜÁªÑ */
  43:HW/TIM/IT/tim.c ****     NVIC_PriorityGroupConfig(NVIC_PriorityGroup_2);
 193              		.loc 1 43 5 view .LVU40
 194 0002 4FF4A060 		mov	r0, #1280
 195 0006 FFF7FEFF 		bl	NVIC_PriorityGroupConfig
 196              	.LVL10:
  44:HW/TIM/IT/tim.c ****     /* ÂàùÂßãÂåñ */
  45:HW/TIM/IT/tim.c ****     LED_Init_Hal();
 197              		.loc 1 45 5 view .LVU41
 198 000a FFF7FEFF 		bl	LED_Init_Hal
 199              	.LVL11:
  46:HW/TIM/IT/tim.c ****     delay_init();
 200              		.loc 1 46 5 view .LVU42
 201 000e FFF7FEFF 		bl	delay_init
 202              	.LVL12:
  47:HW/TIM/IT/tim.c ****     TIM3_Init(5625 - 1, 12800 - 1); // ÈáçË£ÖËΩΩÂÄº‰∏∫5624ÔºåÈ¢ÑÂàÜÈ¢ëÁ≥ªÊï∞‰∏∫12799ÔºåÂú®Êó∂ÈíüÊ∫ê
 203              		.loc 1 47 5 view .LVU43
 204 0012 43F2FF11 		movw	r1, #12799
 205 0016 41F2F850 		movw	r0, #5624
 206 001a FFF7FEFF 		bl	TIM3_Init
 207              	.LVL13:
 208              	.L12:
  48:HW/TIM/IT/tim.c ****     /* Á≠âÂæÖ */
  49:HW/TIM/IT/tim.c ****     while(1);
 209              		.loc 1 49 5 discriminator 1 view .LVU44
 210              		.loc 1 49 10 discriminator 1 view .LVU45
 211 001e FEE7     		b	.L12
 212              		.cfi_endproc
 213              	.LFE31:
 215              		.text
 216              	.Letext0:
 217              		.file 2 "e:\\windows\\programs\\arm-gnu-toolchain-12.2.mpacbti-bet1-mingw-w64-i686-arm-none-eabi\\
 218              		.file 3 "e:\\windows\\programs\\arm-gnu-toolchain-12.2.mpacbti-bet1-mingw-w64-i686-arm-none-eabi\\
 219              		.file 4 "USER/stm32f10x.h"
 220              		.file 5 "STM32F10x_FWLib/inc/stm32f10x_tim.h"
 221              		.file 6 "STM32F10x_FWLib/inc/misc.h"
 222              		.file 7 "SYSTEM/delay/delay.h"
 223              		.file 8 "HW/LED/LED.h"
 224              		.file 9 "STM32F10x_FWLib/inc/stm32f10x_rcc.h"
ARM GAS  C:\Users\86157\AppData\Local\Temp\cczTqZVF.s 			page 6

