ARM GAS  C:\Users\86157\AppData\Local\Temp\cct5KLKd.s 			page 1


   1              		.cpu cortex-m3
   2              		.arch armv7-m
   3              		.fpu softvfp
   4              		.eabi_attribute 20, 1
   5              		.eabi_attribute 21, 1
   6              		.eabi_attribute 23, 3
   7              		.eabi_attribute 24, 1
   8              		.eabi_attribute 25, 1
   9              		.eabi_attribute 26, 1
  10              		.eabi_attribute 30, 1
  11              		.eabi_attribute 34, 1
  12              		.eabi_attribute 18, 4
  13              		.file	"touch.c"
  14              		.text
  15              	.Ltext0:
  16              		.cfi_sections	.debug_frame
  17              		.file 1 "HW/TOUCH/touch.c"
  18              		.global	__aeabi_i2f
  19              		.global	__aeabi_fadd
  20              		.global	__aeabi_fdiv
  21              		.global	__aeabi_f2uiz
  22              		.section	.text.Touch_Init,"ax",%progbits
  23              		.align	1
  24              		.global	Touch_Init
  25              		.syntax unified
  26              		.thumb
  27              		.thumb_func
  29              	Touch_Init:
  30              	.LFB32:
   1:HW/TOUCH/touch.c **** /**
   2:HW/TOUCH/touch.c ****  * @file touch.c
   3:HW/TOUCH/touch.c ****  * @author 511844767
   4:HW/TOUCH/touch.c ****  * @brief 电阻触摸屏实验
   5:HW/TOUCH/touch.c ****  * @version 0.1
   6:HW/TOUCH/touch.c ****  * @date 2023-01-03
   7:HW/TOUCH/touch.c ****  * 
   8:HW/TOUCH/touch.c ****  * @copyright Copyright (c) 2023
   9:HW/TOUCH/touch.c ****  * 
  10:HW/TOUCH/touch.c ****  */
  11:HW/TOUCH/touch.c **** #include"stdio.h"
  12:HW/TOUCH/touch.c **** #include"stdlib.h"
  13:HW/TOUCH/touch.c **** #include"stm32f10x.h"
  14:HW/TOUCH/touch.c **** #include"stm32f10x_exti.h"
  15:HW/TOUCH/touch.c **** #include"gpio_spi.h"
  16:HW/TOUCH/touch.c **** #include"delay.h"
  17:HW/TOUCH/touch.c **** 
  18:HW/TOUCH/touch.c **** /**
  19:HW/TOUCH/touch.c ****  * @brief 触摸屏检测，触摸屏的时序比较特殊
  20:HW/TOUCH/touch.c ****  * 
  21:HW/TOUCH/touch.c ****  * @param cmd 
  22:HW/TOUCH/touch.c ****  * @return uint16_t 
  23:HW/TOUCH/touch.c ****  */
  24:HW/TOUCH/touch.c **** extern uint16_t GPIO_SPI_Touch_Func(uint8_t cmd);
  25:HW/TOUCH/touch.c **** 
  26:HW/TOUCH/touch.c **** /* 定点数表示Q12 */
  27:HW/TOUCH/touch.c **** #define TOUCH_SHIFT 12
  28:HW/TOUCH/touch.c **** 
ARM GAS  C:\Users\86157\AppData\Local\Temp\cct5KLKd.s 			page 2


  29:HW/TOUCH/touch.c **** /* 电压参考值 */
  30:HW/TOUCH/touch.c **** typedef struct{
  31:HW/TOUCH/touch.c ****     uint16_t x; 
  32:HW/TOUCH/touch.c ****     uint16_t y;
  33:HW/TOUCH/touch.c **** } Touch_Ref_t;
  34:HW/TOUCH/touch.c **** static Touch_Ref_t reference = {0};
  35:HW/TOUCH/touch.c **** 
  36:HW/TOUCH/touch.c **** 
  37:HW/TOUCH/touch.c **** void Touch_Init(){
  31              		.loc 1 37 18 view -0
  32              		.cfi_startproc
  33              		@ args = 0, pretend = 0, frame = 48
  34              		@ frame_needed = 0, uses_anonymous_args = 0
  35 0000 F0B5     		push	{r4, r5, r6, r7, lr}
  36              	.LCFI0:
  37              		.cfi_def_cfa_offset 20
  38              		.cfi_offset 4, -20
  39              		.cfi_offset 5, -16
  40              		.cfi_offset 6, -12
  41              		.cfi_offset 7, -8
  42              		.cfi_offset 14, -4
  43 0002 8DB0     		sub	sp, sp, #52
  44              	.LCFI1:
  45              		.cfi_def_cfa_offset 72
  38:HW/TOUCH/touch.c ****     /* 初始化SPI引脚 */
  39:HW/TOUCH/touch.c ****     GPIO_SPI_Init();
  46              		.loc 1 39 5 view .LVU1
  47 0004 FFF7FEFF 		bl	GPIO_SPI_Init
  48              	.LVL0:
  40:HW/TOUCH/touch.c ****     /* 初始化Pen引脚(PF10) */
  41:HW/TOUCH/touch.c ****     RCC_APB2PeriphClockCmd(RCC_APB2Periph_GPIOF, ENABLE);
  49              		.loc 1 41 5 view .LVU2
  50 0008 0121     		movs	r1, #1
  51 000a 8020     		movs	r0, #128
  52 000c FFF7FEFF 		bl	RCC_APB2PeriphClockCmd
  53              	.LVL1:
  42:HW/TOUCH/touch.c ****     GPIO_InitTypeDef gpioDef;
  54              		.loc 1 42 5 view .LVU3
  43:HW/TOUCH/touch.c ****     gpioDef.GPIO_Mode   = GPIO_Mode_IN_FLOATING;
  55              		.loc 1 43 5 view .LVU4
  56              		.loc 1 43 25 is_stmt 0 view .LVU5
  57 0010 0423     		movs	r3, #4
  58 0012 8DF82F30 		strb	r3, [sp, #47]
  44:HW/TOUCH/touch.c ****     gpioDef.GPIO_Pin    = GPIO_Pin_10;
  59              		.loc 1 44 5 is_stmt 1 view .LVU6
  60              		.loc 1 44 25 is_stmt 0 view .LVU7
  61 0016 4FF48063 		mov	r3, #1024
  62 001a ADF82C30 		strh	r3, [sp, #44]	@ movhi
  45:HW/TOUCH/touch.c ****     gpioDef.GPIO_Speed  = GPIO_Speed_50MHz;
  63              		.loc 1 45 5 is_stmt 1 view .LVU8
  64              		.loc 1 45 25 is_stmt 0 view .LVU9
  65 001e 0323     		movs	r3, #3
  66 0020 8DF82E30 		strb	r3, [sp, #46]
  46:HW/TOUCH/touch.c ****     GPIO_Init(GPIOF, &gpioDef);
  67              		.loc 1 46 5 is_stmt 1 view .LVU10
  68 0024 0BA9     		add	r1, sp, #44
  69 0026 3D48     		ldr	r0, .L16
ARM GAS  C:\Users\86157\AppData\Local\Temp\cct5KLKd.s 			page 3


  70 0028 FFF7FEFF 		bl	GPIO_Init
  71              	.LVL2:
  72              	.LBB2:
  47:HW/TOUCH/touch.c **** 
  48:HW/TOUCH/touch.c ****     /* 检测空状态下的电压参考值 */
  49:HW/TOUCH/touch.c ****     {
  50:HW/TOUCH/touch.c ****         /* 记录10次 */
  51:HW/TOUCH/touch.c ****         int i, j;
  73              		.loc 1 51 9 view .LVU11
  52:HW/TOUCH/touch.c ****         uint16_t xBuffer[10], yBuffer[10];
  74              		.loc 1 52 9 view .LVU12
  53:HW/TOUCH/touch.c ****         for(i = 0; i < 10; ++i) {
  75              		.loc 1 53 9 view .LVU13
  76              		.loc 1 53 15 is_stmt 0 view .LVU14
  77 002c 0024     		movs	r4, #0
  78              		.loc 1 53 9 view .LVU15
  79 002e 0DE0     		b	.L2
  80              	.LVL3:
  81              	.L3:
  54:HW/TOUCH/touch.c ****             xBuffer[i] = GPIO_SPI_Touch_Func(0B11010000);
  82              		.loc 1 54 13 is_stmt 1 discriminator 3 view .LVU16
  83              		.loc 1 54 26 is_stmt 0 discriminator 3 view .LVU17
  84 0030 D020     		movs	r0, #208
  85 0032 FFF7FEFF 		bl	GPIO_SPI_Touch_Func
  86              	.LVL4:
  87              		.loc 1 54 24 discriminator 3 view .LVU18
  88 0036 0CAB     		add	r3, sp, #48
  89 0038 03EB4405 		add	r5, r3, r4, lsl #1
  90 003c 25F82C0C 		strh	r0, [r5, #-44]	@ movhi
  55:HW/TOUCH/touch.c ****             yBuffer[i] = GPIO_SPI_Touch_Func(0B10010000);
  91              		.loc 1 55 13 is_stmt 1 discriminator 3 view .LVU19
  92              		.loc 1 55 26 is_stmt 0 discriminator 3 view .LVU20
  93 0040 9020     		movs	r0, #144
  94 0042 FFF7FEFF 		bl	GPIO_SPI_Touch_Func
  95              	.LVL5:
  96              		.loc 1 55 24 discriminator 3 view .LVU21
  97 0046 25F8180C 		strh	r0, [r5, #-24]	@ movhi
  53:HW/TOUCH/touch.c ****         for(i = 0; i < 10; ++i) {
  98              		.loc 1 53 28 is_stmt 1 discriminator 3 view .LVU22
  99 004a 0134     		adds	r4, r4, #1
 100              	.LVL6:
 101              	.L2:
  53:HW/TOUCH/touch.c ****         for(i = 0; i < 10; ++i) {
 102              		.loc 1 53 22 discriminator 1 view .LVU23
 103 004c 092C     		cmp	r4, #9
 104 004e EFDD     		ble	.L3
  56:HW/TOUCH/touch.c ****         }
  57:HW/TOUCH/touch.c **** 
  58:HW/TOUCH/touch.c ****         /* 冒泡排序 */
  59:HW/TOUCH/touch.c ****         uint16_t temp;
  60:HW/TOUCH/touch.c ****         for(i = 10 - 1; i > 0; --i){
 105              		.loc 1 60 15 is_stmt 0 view .LVU24
 106 0050 4FF0090C 		mov	ip, #9
 107 0054 30E0     		b	.L4
 108              	.LVL7:
 109              	.L6:
  53:HW/TOUCH/touch.c ****             xBuffer[i] = GPIO_SPI_Touch_Func(0B11010000);
ARM GAS  C:\Users\86157\AppData\Local\Temp\cct5KLKd.s 			page 4


 110              		.loc 1 53 15 discriminator 1 view .LVU25
 111 0056 1346     		mov	r3, r2
 112              	.LVL8:
 113              	.L8:
  61:HW/TOUCH/touch.c ****             for(j = 0; j < i; ++j){
 114              		.loc 1 61 26 is_stmt 1 discriminator 1 view .LVU26
 115 0058 9C45     		cmp	ip, r3
 116 005a 2BDD     		ble	.L13
  62:HW/TOUCH/touch.c ****                 if(xBuffer[j] > xBuffer[j + 1]){
 117              		.loc 1 62 17 view .LVU27
 118              		.loc 1 62 27 is_stmt 0 view .LVU28
 119 005c 0CAA     		add	r2, sp, #48
 120 005e 02EB4302 		add	r2, r2, r3, lsl #1
 121 0062 32F82C1C 		ldrh	r1, [r2, #-44]
 122              		.loc 1 62 43 view .LVU29
 123 0066 5A1C     		adds	r2, r3, #1
 124              		.loc 1 62 40 view .LVU30
 125 0068 0CA8     		add	r0, sp, #48
 126 006a 00EB4200 		add	r0, r0, r2, lsl #1
 127 006e 30F82C0C 		ldrh	r0, [r0, #-44]
 128              		.loc 1 62 19 view .LVU31
 129 0072 8142     		cmp	r1, r0
 130 0074 08D9     		bls	.L5
  63:HW/TOUCH/touch.c ****                     temp = xBuffer[j]; xBuffer[j] = xBuffer[j + 1]; xBuffer[j + 1] = temp;  // swap
 131              		.loc 1 63 21 is_stmt 1 view .LVU32
 132              	.LVL9:
 133              		.loc 1 63 40 view .LVU33
 134              		.loc 1 63 51 is_stmt 0 view .LVU34
 135 0076 0CAC     		add	r4, sp, #48
 136 0078 04EB430E 		add	lr, r4, r3, lsl #1
 137 007c 2EF82C0C 		strh	r0, [lr, #-44]	@ movhi
 138              		.loc 1 63 69 is_stmt 1 view .LVU35
 139              		.loc 1 63 84 is_stmt 0 view .LVU36
 140 0080 04EB4200 		add	r0, r4, r2, lsl #1
 141 0084 20F82C1C 		strh	r1, [r0, #-44]	@ movhi
 142              	.LVL10:
 143              	.L5:
  64:HW/TOUCH/touch.c ****                 }
  65:HW/TOUCH/touch.c ****                 if(yBuffer[j] > yBuffer[j + 1]){
 144              		.loc 1 65 17 is_stmt 1 view .LVU37
 145              		.loc 1 65 27 is_stmt 0 view .LVU38
 146 0088 0CA9     		add	r1, sp, #48
 147 008a 01EB4301 		add	r1, r1, r3, lsl #1
 148 008e 31F8181C 		ldrh	r1, [r1, #-24]
 149              		.loc 1 65 40 view .LVU39
 150 0092 0CA8     		add	r0, sp, #48
 151 0094 00EB4200 		add	r0, r0, r2, lsl #1
 152 0098 30F8180C 		ldrh	r0, [r0, #-24]
 153              		.loc 1 65 19 view .LVU40
 154 009c 8142     		cmp	r1, r0
 155 009e DAD9     		bls	.L6
  66:HW/TOUCH/touch.c ****                     temp = yBuffer[j]; yBuffer[j] = yBuffer[j + 1]; yBuffer[j + 1] = temp;  // swap
 156              		.loc 1 66 21 is_stmt 1 view .LVU41
 157              	.LVL11:
 158              		.loc 1 66 40 view .LVU42
 159              		.loc 1 66 51 is_stmt 0 view .LVU43
 160 00a0 0CAC     		add	r4, sp, #48
ARM GAS  C:\Users\86157\AppData\Local\Temp\cct5KLKd.s 			page 5


 161 00a2 04EB4303 		add	r3, r4, r3, lsl #1
 162              	.LVL12:
 163              		.loc 1 66 51 view .LVU44
 164 00a6 23F8180C 		strh	r0, [r3, #-24]	@ movhi
 165              		.loc 1 66 69 is_stmt 1 view .LVU45
 166              		.loc 1 66 84 is_stmt 0 view .LVU46
 167 00aa 04EB4203 		add	r3, r4, r2, lsl #1
 168 00ae 23F8181C 		strh	r1, [r3, #-24]	@ movhi
 169 00b2 D0E7     		b	.L6
 170              	.LVL13:
 171              	.L13:
  60:HW/TOUCH/touch.c ****             for(j = 0; j < i; ++j){
 172              		.loc 1 60 32 is_stmt 1 discriminator 2 view .LVU47
 173 00b4 0CF1FF3C 		add	ip, ip, #-1
 174              	.LVL14:
 175              	.L4:
  60:HW/TOUCH/touch.c ****             for(j = 0; j < i; ++j){
 176              		.loc 1 60 27 discriminator 1 view .LVU48
 177 00b8 BCF1000F 		cmp	ip, #0
 178 00bc 01DD     		ble	.L14
  61:HW/TOUCH/touch.c ****                 if(xBuffer[j] > xBuffer[j + 1]){
 179              		.loc 1 61 19 is_stmt 0 view .LVU49
 180 00be 0023     		movs	r3, #0
 181 00c0 CAE7     		b	.L8
 182              	.L14:
  67:HW/TOUCH/touch.c ****                 }
  68:HW/TOUCH/touch.c ****             }
  69:HW/TOUCH/touch.c ****         }
  70:HW/TOUCH/touch.c ****         /* 统计其中的6次 */
  71:HW/TOUCH/touch.c ****         float xSum = 0, ySum = 0;
 183              		.loc 1 71 25 view .LVU50
 184 00c2 0024     		movs	r4, #0
 185              		.loc 1 71 15 view .LVU51
 186 00c4 2546     		mov	r5, r4
  72:HW/TOUCH/touch.c ****         for(i = 2; i < 8; ++i) {
 187              		.loc 1 72 15 view .LVU52
 188 00c6 0226     		movs	r6, #2
 189              	.LVL15:
 190              	.L9:
 191              		.loc 1 72 22 is_stmt 1 discriminator 1 view .LVU53
 192 00c8 072E     		cmp	r6, #7
 193 00ca 16DC     		bgt	.L15
  73:HW/TOUCH/touch.c ****             xSum += xBuffer[i];
 194              		.loc 1 73 13 discriminator 3 view .LVU54
 195              		.loc 1 73 28 is_stmt 0 discriminator 3 view .LVU55
 196 00cc 0CAB     		add	r3, sp, #48
 197 00ce 03EB4607 		add	r7, r3, r6, lsl #1
 198              		.loc 1 73 18 discriminator 3 view .LVU56
 199 00d2 37F82C0C 		ldrh	r0, [r7, #-44]
 200 00d6 FFF7FEFF 		bl	__aeabi_i2f
 201              	.LVL16:
 202 00da 0146     		mov	r1, r0
 203 00dc 2846     		mov	r0, r5
 204 00de FFF7FEFF 		bl	__aeabi_fadd
 205              	.LVL17:
 206 00e2 0546     		mov	r5, r0
 207              	.LVL18:
ARM GAS  C:\Users\86157\AppData\Local\Temp\cct5KLKd.s 			page 6


  74:HW/TOUCH/touch.c ****             ySum += yBuffer[i];
 208              		.loc 1 74 13 is_stmt 1 discriminator 3 view .LVU57
 209              		.loc 1 74 18 is_stmt 0 discriminator 3 view .LVU58
 210 00e4 37F8180C 		ldrh	r0, [r7, #-24]
 211              	.LVL19:
 212              		.loc 1 74 18 discriminator 3 view .LVU59
 213 00e8 FFF7FEFF 		bl	__aeabi_i2f
 214              	.LVL20:
 215 00ec 0146     		mov	r1, r0
 216 00ee 2046     		mov	r0, r4
 217 00f0 FFF7FEFF 		bl	__aeabi_fadd
 218              	.LVL21:
 219 00f4 0446     		mov	r4, r0
 220              	.LVL22:
  72:HW/TOUCH/touch.c ****         for(i = 2; i < 8; ++i) {
 221              		.loc 1 72 27 is_stmt 1 discriminator 3 view .LVU60
 222 00f6 0136     		adds	r6, r6, #1
 223              	.LVL23:
  72:HW/TOUCH/touch.c ****         for(i = 2; i < 8; ++i) {
 224              		.loc 1 72 27 is_stmt 0 discriminator 3 view .LVU61
 225 00f8 E6E7     		b	.L9
 226              	.LVL24:
 227              	.L15:
  75:HW/TOUCH/touch.c ****         }
  76:HW/TOUCH/touch.c **** 
  77:HW/TOUCH/touch.c ****         reference.x = xSum / 6;
 228              		.loc 1 77 9 is_stmt 1 view .LVU62
 229              		.loc 1 77 28 is_stmt 0 view .LVU63
 230 00fa 0949     		ldr	r1, .L16+4
 231 00fc 2846     		mov	r0, r5
 232 00fe FFF7FEFF 		bl	__aeabi_fdiv
 233              	.LVL25:
 234              		.loc 1 77 21 view .LVU64
 235 0102 084D     		ldr	r5, .L16+8
 236              	.LVL26:
 237              		.loc 1 77 21 view .LVU65
 238 0104 FFF7FEFF 		bl	__aeabi_f2uiz
 239              	.LVL27:
 240 0108 2880     		strh	r0, [r5]	@ movhi
  78:HW/TOUCH/touch.c ****         reference.y = ySum / 6;
 241              		.loc 1 78 9 is_stmt 1 view .LVU66
 242              		.loc 1 78 28 is_stmt 0 view .LVU67
 243 010a 0549     		ldr	r1, .L16+4
 244 010c 2046     		mov	r0, r4
 245 010e FFF7FEFF 		bl	__aeabi_fdiv
 246              	.LVL28:
 247              		.loc 1 78 21 view .LVU68
 248 0112 FFF7FEFF 		bl	__aeabi_f2uiz
 249              	.LVL29:
 250 0116 6880     		strh	r0, [r5, #2]	@ movhi
 251              	.LBE2:
  79:HW/TOUCH/touch.c ****     }
  80:HW/TOUCH/touch.c **** }
 252              		.loc 1 80 1 view .LVU69
 253 0118 0DB0     		add	sp, sp, #52
 254              	.LCFI2:
 255              		.cfi_def_cfa_offset 20
ARM GAS  C:\Users\86157\AppData\Local\Temp\cct5KLKd.s 			page 7


 256              		@ sp needed
 257 011a F0BD     		pop	{r4, r5, r6, r7, pc}
 258              	.LVL30:
 259              	.L17:
 260              		.loc 1 80 1 view .LVU70
 261              		.align	2
 262              	.L16:
 263 011c 001C0140 		.word	1073814528
 264 0120 0000C040 		.word	1086324736
 265 0124 00000000 		.word	reference
 266              		.cfi_endproc
 267              	.LFE32:
 269              		.section	.text.Touch_Scan,"ax",%progbits
 270              		.align	1
 271              		.global	Touch_Scan
 272              		.syntax unified
 273              		.thumb
 274              		.thumb_func
 276              	Touch_Scan:
 277              	.LVL31:
 278              	.LFB33:
  81:HW/TOUCH/touch.c **** 
  82:HW/TOUCH/touch.c **** typedef enum{
  83:HW/TOUCH/touch.c ****     Touch_State_Release = 0, 
  84:HW/TOUCH/touch.c ****     Touch_State_Waiting, 
  85:HW/TOUCH/touch.c ****     Touch_State_Pressed
  86:HW/TOUCH/touch.c **** } Touch_State_t;
  87:HW/TOUCH/touch.c **** 
  88:HW/TOUCH/touch.c **** typedef struct{
  89:HW/TOUCH/touch.c ****     uint16_t x; 
  90:HW/TOUCH/touch.c ****     uint16_t y;
  91:HW/TOUCH/touch.c ****     Touch_State_t state;
  92:HW/TOUCH/touch.c **** } Touch_Info_t;
  93:HW/TOUCH/touch.c **** 
  94:HW/TOUCH/touch.c **** /* 状态机检测 */
  95:HW/TOUCH/touch.c **** Touch_Info_t Touch_Scan(){
 279              		.loc 1 95 26 is_stmt 1 view -0
 280              		.cfi_startproc
 281              		@ args = 0, pretend = 0, frame = 0
 282              		@ frame_needed = 0, uses_anonymous_args = 0
 283              		.loc 1 95 26 is_stmt 0 view .LVU72
 284 0000 38B5     		push	{r3, r4, r5, lr}
 285              	.LCFI3:
 286              		.cfi_def_cfa_offset 16
 287              		.cfi_offset 3, -16
 288              		.cfi_offset 4, -12
 289              		.cfi_offset 5, -8
 290              		.cfi_offset 14, -4
 291 0002 0446     		mov	r4, r0
  96:HW/TOUCH/touch.c ****     static Touch_Info_t touchInfo = {0};
 292              		.loc 1 96 5 is_stmt 1 view .LVU73
  97:HW/TOUCH/touch.c ****     static uint8_t acc;
 293              		.loc 1 97 5 view .LVU74
  98:HW/TOUCH/touch.c **** 
  99:HW/TOUCH/touch.c ****     #define PEN (!GPIO_ReadInputDataBit(GPIOF, GPIO_Pin_10))
 100:HW/TOUCH/touch.c ****     #define READ_X() (GPIO_SPI_Touch_Func(0B11010000))
 101:HW/TOUCH/touch.c ****     #define READ_Y() (GPIO_SPI_Touch_Func(0B10010000))
ARM GAS  C:\Users\86157\AppData\Local\Temp\cct5KLKd.s 			page 8


 102:HW/TOUCH/touch.c **** 
 103:HW/TOUCH/touch.c ****     switch (touchInfo.state)
 294              		.loc 1 103 5 view .LVU75
 295              		.loc 1 103 22 is_stmt 0 view .LVU76
 296 0004 284B     		ldr	r3, .L27
 297 0006 1B79     		ldrb	r3, [r3, #4]	@ zero_extendqisi2
 298              		.loc 1 103 5 view .LVU77
 299 0008 012B     		cmp	r3, #1
 300 000a 18D0     		beq	.L19
 301 000c 022B     		cmp	r3, #2
 302 000e 35D0     		beq	.L20
 303 0010 33B1     		cbz	r3, .L25
 304              	.LVL32:
 305              	.L21:
 104:HW/TOUCH/touch.c ****     {
 105:HW/TOUCH/touch.c ****     case Touch_State_Release:
 106:HW/TOUCH/touch.c ****         if(PEN){
 107:HW/TOUCH/touch.c ****             ++acc;
 108:HW/TOUCH/touch.c ****             touchInfo.state = Touch_State_Waiting;
 109:HW/TOUCH/touch.c ****         }
 110:HW/TOUCH/touch.c ****         break;
 111:HW/TOUCH/touch.c ****     
 112:HW/TOUCH/touch.c ****     case Touch_State_Waiting:
 113:HW/TOUCH/touch.c ****         if(PEN){
 114:HW/TOUCH/touch.c ****             ++acc;
 115:HW/TOUCH/touch.c ****             if(acc >= 10){
 116:HW/TOUCH/touch.c ****                 touchInfo.x = READ_X();
 117:HW/TOUCH/touch.c ****                 touchInfo.y = READ_Y();
 118:HW/TOUCH/touch.c ****                 touchInfo.state = Touch_State_Pressed;
 119:HW/TOUCH/touch.c ****             }
 120:HW/TOUCH/touch.c ****         }else{
 121:HW/TOUCH/touch.c ****             acc = 0;
 122:HW/TOUCH/touch.c ****             touchInfo.state = Touch_State_Release;
 123:HW/TOUCH/touch.c ****         }
 124:HW/TOUCH/touch.c ****         break;
 125:HW/TOUCH/touch.c **** 
 126:HW/TOUCH/touch.c ****     case Touch_State_Pressed:
 127:HW/TOUCH/touch.c ****         if(PEN){
 128:HW/TOUCH/touch.c ****             touchInfo.x = READ_X();
 129:HW/TOUCH/touch.c ****             touchInfo.y = READ_Y();
 130:HW/TOUCH/touch.c ****         }else{
 131:HW/TOUCH/touch.c ****             touchInfo.state = Touch_State_Release;
 132:HW/TOUCH/touch.c ****             acc = 0;
 133:HW/TOUCH/touch.c ****         }
 134:HW/TOUCH/touch.c ****         break;
 135:HW/TOUCH/touch.c **** 
 136:HW/TOUCH/touch.c ****     default:    // not allowed
 137:HW/TOUCH/touch.c ****         break;
 138:HW/TOUCH/touch.c ****     }
 139:HW/TOUCH/touch.c **** 
 140:HW/TOUCH/touch.c ****     #undef PEN
 141:HW/TOUCH/touch.c ****     return touchInfo;
 306              		.loc 1 141 5 is_stmt 1 view .LVU78
 307              		.loc 1 141 12 is_stmt 0 view .LVU79
 308 0012 254B     		ldr	r3, .L27
 309 0014 1868     		ldr	r0, [r3]
 310 0016 2060     		str	r0, [r4]	@ unaligned
ARM GAS  C:\Users\86157\AppData\Local\Temp\cct5KLKd.s 			page 9


 311 0018 9B88     		ldrh	r3, [r3, #4]	@ unaligned
 312 001a A380     		strh	r3, [r4, #4]	@ unaligned
 142:HW/TOUCH/touch.c **** }
 313              		.loc 1 142 1 view .LVU80
 314 001c 2046     		mov	r0, r4
 315 001e 38BD     		pop	{r3, r4, r5, pc}
 316              	.LVL33:
 317              	.L25:
 106:HW/TOUCH/touch.c ****             ++acc;
 318              		.loc 1 106 9 is_stmt 1 view .LVU81
 106:HW/TOUCH/touch.c ****             ++acc;
 319              		.loc 1 106 12 is_stmt 0 view .LVU82
 320 0020 4FF48061 		mov	r1, #1024
 321 0024 2148     		ldr	r0, .L27+4
 322              	.LVL34:
 106:HW/TOUCH/touch.c ****             ++acc;
 323              		.loc 1 106 12 view .LVU83
 324 0026 FFF7FEFF 		bl	GPIO_ReadInputDataBit
 325              	.LVL35:
 106:HW/TOUCH/touch.c ****             ++acc;
 326              		.loc 1 106 11 view .LVU84
 327 002a 0028     		cmp	r0, #0
 328 002c F1D1     		bne	.L21
 107:HW/TOUCH/touch.c ****             touchInfo.state = Touch_State_Waiting;
 329              		.loc 1 107 13 is_stmt 1 view .LVU85
 330 002e 204A     		ldr	r2, .L27+8
 331 0030 1378     		ldrb	r3, [r2]	@ zero_extendqisi2
 332 0032 0133     		adds	r3, r3, #1
 333 0034 1370     		strb	r3, [r2]
 108:HW/TOUCH/touch.c ****         }
 334              		.loc 1 108 13 view .LVU86
 108:HW/TOUCH/touch.c ****         }
 335              		.loc 1 108 29 is_stmt 0 view .LVU87
 336 0036 1C4B     		ldr	r3, .L27
 337 0038 0122     		movs	r2, #1
 338 003a 1A71     		strb	r2, [r3, #4]
 339 003c E9E7     		b	.L21
 340              	.LVL36:
 341              	.L19:
 113:HW/TOUCH/touch.c ****             ++acc;
 342              		.loc 1 113 9 is_stmt 1 view .LVU88
 113:HW/TOUCH/touch.c ****             ++acc;
 343              		.loc 1 113 12 is_stmt 0 view .LVU89
 344 003e 4FF48061 		mov	r1, #1024
 345 0042 1A48     		ldr	r0, .L27+4
 346              	.LVL37:
 113:HW/TOUCH/touch.c ****             ++acc;
 347              		.loc 1 113 12 view .LVU90
 348 0044 FFF7FEFF 		bl	GPIO_ReadInputDataBit
 349              	.LVL38:
 113:HW/TOUCH/touch.c ****             ++acc;
 350              		.loc 1 113 11 view .LVU91
 351 0048 90B9     		cbnz	r0, .L22
 114:HW/TOUCH/touch.c ****             if(acc >= 10){
 352              		.loc 1 114 13 is_stmt 1 view .LVU92
 353 004a 194A     		ldr	r2, .L27+8
 354 004c 1378     		ldrb	r3, [r2]	@ zero_extendqisi2
ARM GAS  C:\Users\86157\AppData\Local\Temp\cct5KLKd.s 			page 10


 355 004e 0133     		adds	r3, r3, #1
 356 0050 DBB2     		uxtb	r3, r3
 357 0052 1370     		strb	r3, [r2]
 115:HW/TOUCH/touch.c ****                 touchInfo.x = READ_X();
 358              		.loc 1 115 13 view .LVU93
 115:HW/TOUCH/touch.c ****                 touchInfo.x = READ_X();
 359              		.loc 1 115 15 is_stmt 0 view .LVU94
 360 0054 092B     		cmp	r3, #9
 361 0056 DCD9     		bls	.L21
 116:HW/TOUCH/touch.c ****                 touchInfo.y = READ_Y();
 362              		.loc 1 116 17 is_stmt 1 view .LVU95
 116:HW/TOUCH/touch.c ****                 touchInfo.y = READ_Y();
 363              		.loc 1 116 31 is_stmt 0 view .LVU96
 364 0058 D020     		movs	r0, #208
 365 005a FFF7FEFF 		bl	GPIO_SPI_Touch_Func
 366              	.LVL39:
 116:HW/TOUCH/touch.c ****                 touchInfo.y = READ_Y();
 367              		.loc 1 116 29 view .LVU97
 368 005e 124D     		ldr	r5, .L27
 369 0060 2880     		strh	r0, [r5]	@ movhi
 117:HW/TOUCH/touch.c ****                 touchInfo.state = Touch_State_Pressed;
 370              		.loc 1 117 17 is_stmt 1 view .LVU98
 117:HW/TOUCH/touch.c ****                 touchInfo.state = Touch_State_Pressed;
 371              		.loc 1 117 31 is_stmt 0 view .LVU99
 372 0062 9020     		movs	r0, #144
 373 0064 FFF7FEFF 		bl	GPIO_SPI_Touch_Func
 374              	.LVL40:
 117:HW/TOUCH/touch.c ****                 touchInfo.state = Touch_State_Pressed;
 375              		.loc 1 117 29 view .LVU100
 376 0068 6880     		strh	r0, [r5, #2]	@ movhi
 118:HW/TOUCH/touch.c ****             }
 377              		.loc 1 118 17 is_stmt 1 view .LVU101
 118:HW/TOUCH/touch.c ****             }
 378              		.loc 1 118 33 is_stmt 0 view .LVU102
 379 006a 0223     		movs	r3, #2
 380 006c 2B71     		strb	r3, [r5, #4]
 381 006e D0E7     		b	.L21
 382              	.L22:
 121:HW/TOUCH/touch.c ****             touchInfo.state = Touch_State_Release;
 383              		.loc 1 121 13 is_stmt 1 view .LVU103
 121:HW/TOUCH/touch.c ****             touchInfo.state = Touch_State_Release;
 384              		.loc 1 121 17 is_stmt 0 view .LVU104
 385 0070 0023     		movs	r3, #0
 386 0072 0F4A     		ldr	r2, .L27+8
 387 0074 1370     		strb	r3, [r2]
 122:HW/TOUCH/touch.c ****         }
 388              		.loc 1 122 13 is_stmt 1 view .LVU105
 122:HW/TOUCH/touch.c ****         }
 389              		.loc 1 122 29 is_stmt 0 view .LVU106
 390 0076 0C4A     		ldr	r2, .L27
 391 0078 1371     		strb	r3, [r2, #4]
 392 007a CAE7     		b	.L21
 393              	.LVL41:
 394              	.L20:
 127:HW/TOUCH/touch.c ****             touchInfo.x = READ_X();
 395              		.loc 1 127 9 is_stmt 1 view .LVU107
 127:HW/TOUCH/touch.c ****             touchInfo.x = READ_X();
ARM GAS  C:\Users\86157\AppData\Local\Temp\cct5KLKd.s 			page 11


 396              		.loc 1 127 12 is_stmt 0 view .LVU108
 397 007c 4FF48061 		mov	r1, #1024
 398 0080 0A48     		ldr	r0, .L27+4
 399              	.LVL42:
 127:HW/TOUCH/touch.c ****             touchInfo.x = READ_X();
 400              		.loc 1 127 12 view .LVU109
 401 0082 FFF7FEFF 		bl	GPIO_ReadInputDataBit
 402              	.LVL43:
 127:HW/TOUCH/touch.c ****             touchInfo.x = READ_X();
 403              		.loc 1 127 11 view .LVU110
 404 0086 28B1     		cbz	r0, .L26
 131:HW/TOUCH/touch.c ****             acc = 0;
 405              		.loc 1 131 13 is_stmt 1 view .LVU111
 131:HW/TOUCH/touch.c ****             acc = 0;
 406              		.loc 1 131 29 is_stmt 0 view .LVU112
 407 0088 0023     		movs	r3, #0
 408 008a 074A     		ldr	r2, .L27
 409 008c 1371     		strb	r3, [r2, #4]
 132:HW/TOUCH/touch.c ****         }
 410              		.loc 1 132 13 is_stmt 1 view .LVU113
 132:HW/TOUCH/touch.c ****         }
 411              		.loc 1 132 17 is_stmt 0 view .LVU114
 412 008e 084A     		ldr	r2, .L27+8
 413 0090 1370     		strb	r3, [r2]
 414 0092 BEE7     		b	.L21
 415              	.L26:
 128:HW/TOUCH/touch.c ****             touchInfo.y = READ_Y();
 416              		.loc 1 128 13 is_stmt 1 view .LVU115
 128:HW/TOUCH/touch.c ****             touchInfo.y = READ_Y();
 417              		.loc 1 128 27 is_stmt 0 view .LVU116
 418 0094 D020     		movs	r0, #208
 419 0096 FFF7FEFF 		bl	GPIO_SPI_Touch_Func
 420              	.LVL44:
 128:HW/TOUCH/touch.c ****             touchInfo.y = READ_Y();
 421              		.loc 1 128 25 view .LVU117
 422 009a 034D     		ldr	r5, .L27
 423 009c 2880     		strh	r0, [r5]	@ movhi
 129:HW/TOUCH/touch.c ****         }else{
 424              		.loc 1 129 13 is_stmt 1 view .LVU118
 129:HW/TOUCH/touch.c ****         }else{
 425              		.loc 1 129 27 is_stmt 0 view .LVU119
 426 009e 9020     		movs	r0, #144
 427 00a0 FFF7FEFF 		bl	GPIO_SPI_Touch_Func
 428              	.LVL45:
 129:HW/TOUCH/touch.c ****         }else{
 429              		.loc 1 129 25 view .LVU120
 430 00a4 6880     		strh	r0, [r5, #2]	@ movhi
 431 00a6 B4E7     		b	.L21
 432              	.L28:
 433              		.align	2
 434              	.L27:
 435 00a8 00000000 		.word	touchInfo.1
 436 00ac 001C0140 		.word	1073814528
 437 00b0 00000000 		.word	acc.0
 438              		.cfi_endproc
 439              	.LFE33:
 441              		.section	.rodata.Touch_Run.str1.4,"aMS",%progbits,1
ARM GAS  C:\Users\86157\AppData\Local\Temp\cct5KLKd.s 			page 12


 442              		.align	2
 443              	.LC0:
 444 0000 78203D20 		.ascii	"x = %d\011y = %d\015\012\000"
 444      25640979 
 444      203D2025 
 444      640D0A00 
 445              		.section	.text.Touch_Run,"ax",%progbits
 446              		.align	1
 447              		.global	Touch_Run
 448              		.syntax unified
 449              		.thumb
 450              		.thumb_func
 452              	Touch_Run:
 453              	.LFB34:
 143:HW/TOUCH/touch.c **** 
 144:HW/TOUCH/touch.c **** extern void USART1_Init();
 145:HW/TOUCH/touch.c **** 
 146:HW/TOUCH/touch.c **** void Touch_Run(){
 454              		.loc 1 146 17 is_stmt 1 view -0
 455              		.cfi_startproc
 456              		@ Volatile: function does not return.
 457              		@ args = 0, pretend = 0, frame = 8
 458              		@ frame_needed = 0, uses_anonymous_args = 0
 459 0000 00B5     		push	{lr}
 460              	.LCFI4:
 461              		.cfi_def_cfa_offset 4
 462              		.cfi_offset 14, -4
 463 0002 83B0     		sub	sp, sp, #12
 464              	.LCFI5:
 465              		.cfi_def_cfa_offset 16
 147:HW/TOUCH/touch.c ****     /* 初始化 */
 148:HW/TOUCH/touch.c ****     USART1_Init();
 466              		.loc 1 148 5 view .LVU122
 467 0004 FFF7FEFF 		bl	USART1_Init
 468              	.LVL46:
 149:HW/TOUCH/touch.c ****     delay_init();
 469              		.loc 1 149 5 view .LVU123
 470 0008 FFF7FEFF 		bl	delay_init
 471              	.LVL47:
 150:HW/TOUCH/touch.c ****     Touch_Init();
 472              		.loc 1 150 5 view .LVU124
 473 000c FFF7FEFF 		bl	Touch_Init
 474              	.LVL48:
 475 0010 09E0     		b	.L31
 476              	.L33:
 151:HW/TOUCH/touch.c **** 
 152:HW/TOUCH/touch.c ****     /* 检测 */
 153:HW/TOUCH/touch.c ****     Touch_Info_t touchInfo;
 154:HW/TOUCH/touch.c ****     while(1){
 155:HW/TOUCH/touch.c ****         touchInfo = Touch_Scan();
 156:HW/TOUCH/touch.c ****         if(touchInfo.state == Touch_State_Pressed){
 157:HW/TOUCH/touch.c ****             printf("x = %d\ty = %d\r\n", touchInfo.x, touchInfo.y);
 477              		.loc 1 157 13 view .LVU125
 478 0012 BDF80220 		ldrh	r2, [sp, #2]
 479 0016 BDF80010 		ldrh	r1, [sp]
 480 001a 0748     		ldr	r0, .L34
 481 001c FFF7FEFF 		bl	printf
ARM GAS  C:\Users\86157\AppData\Local\Temp\cct5KLKd.s 			page 13


 482              	.LVL49:
 483              	.L30:
 158:HW/TOUCH/touch.c ****         }
 159:HW/TOUCH/touch.c ****         delay_ms(5);
 484              		.loc 1 159 9 view .LVU126
 485 0020 0520     		movs	r0, #5
 486 0022 FFF7FEFF 		bl	delay_ms
 487              	.LVL50:
 154:HW/TOUCH/touch.c ****         touchInfo = Touch_Scan();
 488              		.loc 1 154 10 view .LVU127
 489              	.L31:
 153:HW/TOUCH/touch.c ****     while(1){
 490              		.loc 1 153 5 view .LVU128
 154:HW/TOUCH/touch.c ****         touchInfo = Touch_Scan();
 491              		.loc 1 154 5 view .LVU129
 155:HW/TOUCH/touch.c ****         if(touchInfo.state == Touch_State_Pressed){
 492              		.loc 1 155 9 view .LVU130
 155:HW/TOUCH/touch.c ****         if(touchInfo.state == Touch_State_Pressed){
 493              		.loc 1 155 21 is_stmt 0 view .LVU131
 494 0026 6846     		mov	r0, sp
 495 0028 FFF7FEFF 		bl	Touch_Scan
 496              	.LVL51:
 156:HW/TOUCH/touch.c ****             printf("x = %d\ty = %d\r\n", touchInfo.x, touchInfo.y);
 497              		.loc 1 156 9 is_stmt 1 view .LVU132
 156:HW/TOUCH/touch.c ****             printf("x = %d\ty = %d\r\n", touchInfo.x, touchInfo.y);
 498              		.loc 1 156 21 is_stmt 0 view .LVU133
 499 002c 9DF80430 		ldrb	r3, [sp, #4]	@ zero_extendqisi2
 156:HW/TOUCH/touch.c ****             printf("x = %d\ty = %d\r\n", touchInfo.x, touchInfo.y);
 500              		.loc 1 156 11 view .LVU134
 501 0030 022B     		cmp	r3, #2
 502 0032 EED0     		beq	.L33
 503 0034 F4E7     		b	.L30
 504              	.L35:
 505 0036 00BF     		.align	2
 506              	.L34:
 507 0038 00000000 		.word	.LC0
 508              		.cfi_endproc
 509              	.LFE34:
 511              		.section	.bss.acc.0,"aw",%nobits
 514              	acc.0:
 515 0000 00       		.space	1
 516              		.section	.bss.touchInfo.1,"aw",%nobits
 517              		.align	2
 520              	touchInfo.1:
 521 0000 00000000 		.space	6
 521      0000
 522              		.section	.bss.reference,"aw",%nobits
 523              		.align	2
 526              	reference:
 527 0000 00000000 		.space	4
 528              		.text
 529              	.Letext0:
 530              		.file 2 "e:\\windows\\programs\\arm-gnu-toolchain-12.2.mpacbti-bet1-mingw-w64-i686-arm-none-eabi\\
 531              		.file 3 "e:\\windows\\programs\\arm-gnu-toolchain-12.2.mpacbti-bet1-mingw-w64-i686-arm-none-eabi\\
 532              		.file 4 "USER/stm32f10x.h"
 533              		.file 5 "STM32F10x_FWLib/inc/stm32f10x_gpio.h"
 534              		.file 6 "e:\\windows\\programs\\arm-gnu-toolchain-12.2.mpacbti-bet1-mingw-w64-i686-arm-none-eabi\\
ARM GAS  C:\Users\86157\AppData\Local\Temp\cct5KLKd.s 			page 14


 535              		.file 7 "SYSTEM/delay/delay.h"
 536              		.file 8 "STM32F10x_FWLib/inc/stm32f10x_rcc.h"
 537              		.file 9 "HW/TOUCH/gpio_spi.h"
ARM GAS  C:\Users\86157\AppData\Local\Temp\cct5KLKd.s 			page 15


DEFINED SYMBOLS
                            *ABS*:00000000 touch.c
C:\Users\86157\AppData\Local\Temp\cct5KLKd.s:23     .text.Touch_Init:00000000 $t
C:\Users\86157\AppData\Local\Temp\cct5KLKd.s:29     .text.Touch_Init:00000000 Touch_Init
C:\Users\86157\AppData\Local\Temp\cct5KLKd.s:263    .text.Touch_Init:0000011c $d
C:\Users\86157\AppData\Local\Temp\cct5KLKd.s:526    .bss.reference:00000000 reference
C:\Users\86157\AppData\Local\Temp\cct5KLKd.s:270    .text.Touch_Scan:00000000 $t
C:\Users\86157\AppData\Local\Temp\cct5KLKd.s:276    .text.Touch_Scan:00000000 Touch_Scan
C:\Users\86157\AppData\Local\Temp\cct5KLKd.s:435    .text.Touch_Scan:000000a8 $d
C:\Users\86157\AppData\Local\Temp\cct5KLKd.s:520    .bss.touchInfo.1:00000000 touchInfo.1
C:\Users\86157\AppData\Local\Temp\cct5KLKd.s:514    .bss.acc.0:00000000 acc.0
C:\Users\86157\AppData\Local\Temp\cct5KLKd.s:442    .rodata.Touch_Run.str1.4:00000000 $d
C:\Users\86157\AppData\Local\Temp\cct5KLKd.s:446    .text.Touch_Run:00000000 $t
C:\Users\86157\AppData\Local\Temp\cct5KLKd.s:452    .text.Touch_Run:00000000 Touch_Run
C:\Users\86157\AppData\Local\Temp\cct5KLKd.s:507    .text.Touch_Run:00000038 $d
C:\Users\86157\AppData\Local\Temp\cct5KLKd.s:515    .bss.acc.0:00000000 $d
C:\Users\86157\AppData\Local\Temp\cct5KLKd.s:517    .bss.touchInfo.1:00000000 $d
C:\Users\86157\AppData\Local\Temp\cct5KLKd.s:523    .bss.reference:00000000 $d

UNDEFINED SYMBOLS
__aeabi_i2f
__aeabi_fadd
__aeabi_fdiv
__aeabi_f2uiz
GPIO_SPI_Init
RCC_APB2PeriphClockCmd
GPIO_Init
GPIO_SPI_Touch_Func
GPIO_ReadInputDataBit
USART1_Init
delay_init
printf
delay_ms
