ARM GAS  C:\Users\86157\AppData\Local\Temp\ccsJjo7b.s 			page 1


   1              		.cpu cortex-m3
   2              		.arch armv7-m
   3              		.fpu softvfp
   4              		.eabi_attribute 20, 1
   5              		.eabi_attribute 21, 1
   6              		.eabi_attribute 23, 3
   7              		.eabi_attribute 24, 1
   8              		.eabi_attribute 25, 1
   9              		.eabi_attribute 26, 1
  10              		.eabi_attribute 30, 1
  11              		.eabi_attribute 34, 1
  12              		.eabi_attribute 18, 4
  13              		.file	"USART.c"
  14              		.text
  15              	.Ltext0:
  16              		.cfi_sections	.debug_frame
  17              		.file 1 "HW/USART/USART.c"
  18              		.section	.text._write,"ax",%progbits
  19              		.align	1
  20              		.global	_write
  21              		.syntax unified
  22              		.thumb
  23              		.thumb_func
  25              	_write:
  26              	.LVL0:
  27              	.LFB32:
   1:HW/USART/USART.c **** #include"stm32f10x.h"
   2:HW/USART/USART.c **** #include"stm32f10x_usart.h"
   3:HW/USART/USART.c **** #include"stdio.h"
   4:HW/USART/USART.c **** #include"delay.h"
   5:HW/USART/USART.c **** #include"math.h"
   6:HW/USART/USART.c **** 
   7:HW/USART/USART.c **** /* 将printf重定向到USART1 */
   8:HW/USART/USART.c **** int _write(int fd, char *ptr, int len)  
   9:HW/USART/USART.c **** {  
  28              		.loc 1 9 1 view -0
  29              		.cfi_startproc
  30              		@ args = 0, pretend = 0, frame = 0
  31              		@ frame_needed = 0, uses_anonymous_args = 0
  32              		.loc 1 9 1 is_stmt 0 view .LVU1
  33 0000 70B5     		push	{r4, r5, r6, lr}
  34              	.LCFI0:
  35              		.cfi_def_cfa_offset 16
  36              		.cfi_offset 4, -16
  37              		.cfi_offset 5, -12
  38              		.cfi_offset 6, -8
  39              		.cfi_offset 14, -4
  40 0002 0E46     		mov	r6, r1
  41 0004 1546     		mov	r5, r2
  10:HW/USART/USART.c ****     int i;
  42              		.loc 1 10 5 is_stmt 1 view .LVU2
  11:HW/USART/USART.c ****     for(i = 0; i < len; ++i){
  43              		.loc 1 11 5 view .LVU3
  44              	.LVL1:
  45              		.loc 1 11 11 is_stmt 0 view .LVU4
  46 0006 0024     		movs	r4, #0
  47              		.loc 1 11 5 view .LVU5
ARM GAS  C:\Users\86157\AppData\Local\Temp\ccsJjo7b.s 			page 2


  48 0008 09E0     		b	.L2
  49              	.LVL2:
  50              	.L3:
  12:HW/USART/USART.c ****         /* 等待上一个数据发送完成 */
  13:HW/USART/USART.c ****         while((USART1->SR & 0X40) == 0);
  51              		.loc 1 13 35 is_stmt 1 discriminator 1 view .LVU6
  52              		.loc 1 13 22 is_stmt 0 discriminator 1 view .LVU7
  53 000a 074B     		ldr	r3, .L5
  54 000c 1B88     		ldrh	r3, [r3]
  55              		.loc 1 13 35 discriminator 1 view .LVU8
  56 000e 13F0400F 		tst	r3, #64
  57 0012 FAD0     		beq	.L3
  14:HW/USART/USART.c ****         /* 发送当前数据 */
  15:HW/USART/USART.c ****         USART_SendData(USART1, ptr[i]);
  58              		.loc 1 15 9 is_stmt 1 discriminator 2 view .LVU9
  59 0014 315D     		ldrb	r1, [r6, r4]	@ zero_extendqisi2
  60 0016 0448     		ldr	r0, .L5
  61 0018 FFF7FEFF 		bl	USART_SendData
  62              	.LVL3:
  11:HW/USART/USART.c ****         /* 等待上一个数据发送完成 */
  63              		.loc 1 11 25 discriminator 2 view .LVU10
  64 001c 0134     		adds	r4, r4, #1
  65              	.LVL4:
  66              	.L2:
  11:HW/USART/USART.c ****         /* 等待上一个数据发送完成 */
  67              		.loc 1 11 18 discriminator 1 view .LVU11
  68 001e AC42     		cmp	r4, r5
  69 0020 F3DB     		blt	.L3
  16:HW/USART/USART.c ****     }
  17:HW/USART/USART.c ****     return len;
  70              		.loc 1 17 5 view .LVU12
  18:HW/USART/USART.c **** }
  71              		.loc 1 18 1 is_stmt 0 view .LVU13
  72 0022 2846     		mov	r0, r5
  73 0024 70BD     		pop	{r4, r5, r6, pc}
  74              	.LVL5:
  75              	.L6:
  76              		.loc 1 18 1 view .LVU14
  77 0026 00BF     		.align	2
  78              	.L5:
  79 0028 00380140 		.word	1073821696
  80              		.cfi_endproc
  81              	.LFE32:
  83              		.section	.text.USART1_Init,"ax",%progbits
  84              		.align	1
  85              		.global	USART1_Init
  86              		.syntax unified
  87              		.thumb
  88              		.thumb_func
  90              	USART1_Init:
  91              	.LFB33:
  19:HW/USART/USART.c **** 
  20:HW/USART/USART.c **** /* 串口初始化 */
  21:HW/USART/USART.c **** void USART1_Init(){
  92              		.loc 1 21 19 is_stmt 1 view -0
  93              		.cfi_startproc
  94              		@ args = 0, pretend = 0, frame = 32
ARM GAS  C:\Users\86157\AppData\Local\Temp\ccsJjo7b.s 			page 3


  95              		@ frame_needed = 0, uses_anonymous_args = 0
  96 0000 30B5     		push	{r4, r5, lr}
  97              	.LCFI1:
  98              		.cfi_def_cfa_offset 12
  99              		.cfi_offset 4, -12
 100              		.cfi_offset 5, -8
 101              		.cfi_offset 14, -4
 102 0002 89B0     		sub	sp, sp, #36
 103              	.LCFI2:
 104              		.cfi_def_cfa_offset 48
  22:HW/USART/USART.c ****     /* 关闭printf缓冲，否则printf不会实时发送到串口 */
  23:HW/USART/USART.c ****     setvbuf(stdout, NULL, _IONBF, 0);
 105              		.loc 1 23 5 view .LVU16
 106              		.loc 1 23 13 is_stmt 0 view .LVU17
 107 0004 1E4B     		ldr	r3, .L9
 108 0006 1868     		ldr	r0, [r3]
 109              		.loc 1 23 5 view .LVU18
 110 0008 0023     		movs	r3, #0
 111 000a 0222     		movs	r2, #2
 112 000c 1946     		mov	r1, r3
 113 000e 8068     		ldr	r0, [r0, #8]
 114 0010 FFF7FEFF 		bl	setvbuf
 115              	.LVL6:
  24:HW/USART/USART.c **** 
  25:HW/USART/USART.c ****     /* USART1时钟使能 */
  26:HW/USART/USART.c ****     RCC_APB2PeriphClockCmd(RCC_APB2Periph_GPIOA, ENABLE);
 116              		.loc 1 26 5 is_stmt 1 view .LVU19
 117 0014 0121     		movs	r1, #1
 118 0016 0420     		movs	r0, #4
 119 0018 FFF7FEFF 		bl	RCC_APB2PeriphClockCmd
 120              	.LVL7:
  27:HW/USART/USART.c ****     RCC_APB2PeriphClockCmd(RCC_APB2Periph_USART1, ENABLE);
 121              		.loc 1 27 5 view .LVU20
 122 001c 0121     		movs	r1, #1
 123 001e 4FF48040 		mov	r0, #16384
 124 0022 FFF7FEFF 		bl	RCC_APB2PeriphClockCmd
 125              	.LVL8:
  28:HW/USART/USART.c **** 
  29:HW/USART/USART.c ****     /* 配置GPIO复用为USART1 */
  30:HW/USART/USART.c ****     GPIO_InitTypeDef gpioAPin9Def = { GPIO_Pin_9, GPIO_Speed_10MHz, GPIO_Mode_AF_PP };
 126              		.loc 1 30 5 view .LVU21
 127              		.loc 1 30 22 is_stmt 0 view .LVU22
 128 0026 174C     		ldr	r4, .L9+4
 129 0028 2368     		ldr	r3, [r4]
 130 002a 0793     		str	r3, [sp, #28]
  31:HW/USART/USART.c ****     GPIO_InitTypeDef gpioAPin10Def = { GPIO_Pin_10, GPIO_Speed_10MHz, GPIO_Mode_IN_FLOATING };
 131              		.loc 1 31 5 is_stmt 1 view .LVU23
 132              		.loc 1 31 22 is_stmt 0 view .LVU24
 133 002c 6368     		ldr	r3, [r4, #4]
 134 002e 0693     		str	r3, [sp, #24]
  32:HW/USART/USART.c ****     GPIO_Init(GPIOA, &gpioAPin9Def);
 135              		.loc 1 32 5 is_stmt 1 view .LVU25
 136 0030 154D     		ldr	r5, .L9+8
 137 0032 07A9     		add	r1, sp, #28
 138 0034 2846     		mov	r0, r5
 139 0036 FFF7FEFF 		bl	GPIO_Init
 140              	.LVL9:
ARM GAS  C:\Users\86157\AppData\Local\Temp\ccsJjo7b.s 			page 4


  33:HW/USART/USART.c ****     GPIO_Init(GPIOA, &gpioAPin10Def);
 141              		.loc 1 33 5 view .LVU26
 142 003a 06A9     		add	r1, sp, #24
 143 003c 2846     		mov	r0, r5
 144 003e FFF7FEFF 		bl	GPIO_Init
 145              	.LVL10:
  34:HW/USART/USART.c **** 
  35:HW/USART/USART.c ****     /* 初始化USART1 */
  36:HW/USART/USART.c ****     USART_InitTypeDef usart1Def = { 
 146              		.loc 1 36 5 view .LVU27
 147              		.loc 1 36 23 is_stmt 0 view .LVU28
 148 0042 0DF1080C 		add	ip, sp, #8
 149 0046 04F10803 		add	r3, r4, #8
 150 004a 0FCB     		ldm	r3, {r0, r1, r2, r3}
 151 004c 8CE80F00 		stm	ip, {r0, r1, r2, r3}
  37:HW/USART/USART.c ****         115200, 
  38:HW/USART/USART.c ****         USART_WordLength_8b,
  39:HW/USART/USART.c ****         USART_StopBits_1,  
  40:HW/USART/USART.c ****         USART_Parity_No, 
  41:HW/USART/USART.c ****         USART_Mode_Tx | USART_Mode_Rx, 
  42:HW/USART/USART.c ****         USART_HardwareFlowControl_None,  
  43:HW/USART/USART.c ****     };
  44:HW/USART/USART.c ****     USART_Init(USART1, &usart1Def);
 152              		.loc 1 44 5 is_stmt 1 view .LVU29
 153 0050 05F54055 		add	r5, r5, #12288
 154 0054 6146     		mov	r1, ip
 155 0056 2846     		mov	r0, r5
 156 0058 FFF7FEFF 		bl	USART_Init
 157              	.LVL11:
  45:HW/USART/USART.c **** 
  46:HW/USART/USART.c ****     /* 使能USART1 */
  47:HW/USART/USART.c ****     USART_Cmd(USART1, ENABLE);
 158              		.loc 1 47 5 view .LVU30
 159 005c 0121     		movs	r1, #1
 160 005e 2846     		mov	r0, r5
 161 0060 FFF7FEFF 		bl	USART_Cmd
 162              	.LVL12:
  48:HW/USART/USART.c **** 
  49:HW/USART/USART.c ****     /* 使能USART1 RXNE状态寄存器中断（接收中断） */
  50:HW/USART/USART.c ****     USART_ITConfig(USART1, USART_IT_RXNE, ENABLE);
 163              		.loc 1 50 5 view .LVU31
 164 0064 0122     		movs	r2, #1
 165 0066 40F22551 		movw	r1, #1317
 166 006a 2846     		mov	r0, r5
 167 006c FFF7FEFF 		bl	USART_ITConfig
 168              	.LVL13:
  51:HW/USART/USART.c ****     NVIC_InitTypeDef nvicDef = { USART1_IRQn, 0XF, 0X0, ENABLE };
 169              		.loc 1 51 5 view .LVU32
 170              		.loc 1 51 22 is_stmt 0 view .LVU33
 171 0070 A369     		ldr	r3, [r4, #24]
 172 0072 0193     		str	r3, [sp, #4]
  52:HW/USART/USART.c ****     NVIC_Init(&nvicDef);
 173              		.loc 1 52 5 is_stmt 1 view .LVU34
 174 0074 01A8     		add	r0, sp, #4
 175 0076 FFF7FEFF 		bl	NVIC_Init
 176              	.LVL14:
  53:HW/USART/USART.c **** }
ARM GAS  C:\Users\86157\AppData\Local\Temp\ccsJjo7b.s 			page 5


 177              		.loc 1 53 1 is_stmt 0 view .LVU35
 178 007a 09B0     		add	sp, sp, #36
 179              	.LCFI3:
 180              		.cfi_def_cfa_offset 12
 181              		@ sp needed
 182 007c 30BD     		pop	{r4, r5, pc}
 183              	.L10:
 184 007e 00BF     		.align	2
 185              	.L9:
 186 0080 00000000 		.word	_impure_ptr
 187 0084 00000000 		.word	.LANCHOR0
 188 0088 00080140 		.word	1073809408
 189              		.cfi_endproc
 190              	.LFE33:
 192              		.section	.text.USART1_IRQHandler,"ax",%progbits
 193              		.align	1
 194              		.global	USART1_IRQHandler
 195              		.syntax unified
 196              		.thumb
 197              		.thumb_func
 199              	USART1_IRQHandler:
 200              	.LFB34:
  54:HW/USART/USART.c **** 
  55:HW/USART/USART.c **** /* 
  56:HW/USART/USART.c ****     中断服务函数，在startup_stm32f103xe.s中定义了接口
  57:HW/USART/USART.c ****     值得注意的是，如果接收了字符串str，则USART1_IRQHandler会被调用len(str)次
  58:HW/USART/USART.c **** */
  59:HW/USART/USART.c **** void USART1_IRQHandler(){
 201              		.loc 1 59 25 is_stmt 1 view -0
 202              		.cfi_startproc
 203              		@ args = 0, pretend = 0, frame = 0
 204              		@ frame_needed = 0, uses_anonymous_args = 0
 205 0000 10B5     		push	{r4, lr}
 206              	.LCFI4:
 207              		.cfi_def_cfa_offset 8
 208              		.cfi_offset 4, -8
 209              		.cfi_offset 14, -4
  60:HW/USART/USART.c ****     if(USART_GetITStatus(USART1, USART_IT_RXNE)){   // 判断是否为接收中断
 210              		.loc 1 60 5 view .LVU37
 211              		.loc 1 60 8 is_stmt 0 view .LVU38
 212 0002 40F22551 		movw	r1, #1317
 213 0006 0748     		ldr	r0, .L15
 214 0008 FFF7FEFF 		bl	USART_GetITStatus
 215              	.LVL15:
 216              		.loc 1 60 7 view .LVU39
 217 000c 00B9     		cbnz	r0, .L14
 218              	.L11:
  61:HW/USART/USART.c ****         u16 res = USART_ReceiveData(USART1);        // 接收串口数据
  62:HW/USART/USART.c ****         USART_SendData(USART1, res);                // 串口发送数据
  63:HW/USART/USART.c ****     }
  64:HW/USART/USART.c **** }
 219              		.loc 1 64 1 view .LVU40
 220 000e 10BD     		pop	{r4, pc}
 221              	.L14:
 222              	.LBB2:
  61:HW/USART/USART.c ****         u16 res = USART_ReceiveData(USART1);        // 接收串口数据
 223              		.loc 1 61 9 is_stmt 1 view .LVU41
ARM GAS  C:\Users\86157\AppData\Local\Temp\ccsJjo7b.s 			page 6


  61:HW/USART/USART.c ****         u16 res = USART_ReceiveData(USART1);        // 接收串口数据
 224              		.loc 1 61 19 is_stmt 0 view .LVU42
 225 0010 044C     		ldr	r4, .L15
 226 0012 2046     		mov	r0, r4
 227 0014 FFF7FEFF 		bl	USART_ReceiveData
 228              	.LVL16:
 229 0018 0146     		mov	r1, r0
 230              	.LVL17:
  62:HW/USART/USART.c ****     }
 231              		.loc 1 62 9 is_stmt 1 view .LVU43
 232 001a 2046     		mov	r0, r4
 233 001c FFF7FEFF 		bl	USART_SendData
 234              	.LVL18:
  62:HW/USART/USART.c ****     }
 235              		.loc 1 62 9 is_stmt 0 view .LVU44
 236              	.LBE2:
 237              		.loc 1 64 1 view .LVU45
 238 0020 F5E7     		b	.L11
 239              	.L16:
 240 0022 00BF     		.align	2
 241              	.L15:
 242 0024 00380140 		.word	1073821696
 243              		.cfi_endproc
 244              	.LFE34:
 246              		.section	.rodata.USART1_Run.str1.4,"aMS",%progbits,1
 247              		.align	2
 248              	.LC4:
 249 0000 25640D0A 		.ascii	"%d\015\012\000"
 249      00
 250              		.section	.text.USART1_Run,"ax",%progbits
 251              		.align	1
 252              		.global	USART1_Run
 253              		.syntax unified
 254              		.thumb
 255              		.thumb_func
 257              	USART1_Run:
 258              	.LFB35:
  65:HW/USART/USART.c **** 
  66:HW/USART/USART.c **** 
  67:HW/USART/USART.c **** void USART1_Run(){
 259              		.loc 1 67 18 is_stmt 1 view -0
 260              		.cfi_startproc
 261              		@ args = 0, pretend = 0, frame = 0
 262              		@ frame_needed = 0, uses_anonymous_args = 0
 263 0000 38B5     		push	{r3, r4, r5, lr}
 264              	.LCFI5:
 265              		.cfi_def_cfa_offset 16
 266              		.cfi_offset 3, -16
 267              		.cfi_offset 4, -12
 268              		.cfi_offset 5, -8
 269              		.cfi_offset 14, -4
  68:HW/USART/USART.c ****     NVIC_PriorityGroupConfig(NVIC_PriorityGroup_4);
 270              		.loc 1 68 5 view .LVU47
 271 0002 4FF44070 		mov	r0, #768
 272 0006 FFF7FEFF 		bl	NVIC_PriorityGroupConfig
 273              	.LVL19:
  69:HW/USART/USART.c ****     USART1_Init();
ARM GAS  C:\Users\86157\AppData\Local\Temp\ccsJjo7b.s 			page 7


 274              		.loc 1 69 5 view .LVU48
 275 000a FFF7FEFF 		bl	USART1_Init
 276              	.LVL20:
  70:HW/USART/USART.c ****     delay_init();
 277              		.loc 1 70 5 view .LVU49
 278 000e FFF7FEFF 		bl	delay_init
 279              	.LVL21:
  71:HW/USART/USART.c ****     int t = 0;
 280              		.loc 1 71 5 view .LVU50
 281              		.loc 1 71 9 is_stmt 0 view .LVU51
 282 0012 0024     		movs	r4, #0
 283              	.LVL22:
 284              	.L18:
  72:HW/USART/USART.c ****     while(1){
 285              		.loc 1 72 5 is_stmt 1 discriminator 1 view .LVU52
  73:HW/USART/USART.c ****         delay_ms(1000);
 286              		.loc 1 73 9 discriminator 1 view .LVU53
 287 0014 4FF47A70 		mov	r0, #1000
 288 0018 FFF7FEFF 		bl	delay_ms
 289              	.LVL23:
  74:HW/USART/USART.c ****         printf("%d\r\n", t++);
 290              		.loc 1 74 9 discriminator 1 view .LVU54
 291 001c 651C     		adds	r5, r4, #1
 292              	.LVL24:
 293              		.loc 1 74 9 is_stmt 0 discriminator 1 view .LVU55
 294 001e 2146     		mov	r1, r4
 295 0020 0248     		ldr	r0, .L20
 296 0022 FFF7FEFF 		bl	printf
 297              	.LVL25:
  72:HW/USART/USART.c ****     while(1){
 298              		.loc 1 72 10 is_stmt 1 discriminator 1 view .LVU56
 299              		.loc 1 74 9 is_stmt 0 discriminator 1 view .LVU57
 300 0026 2C46     		mov	r4, r5
 301 0028 F4E7     		b	.L18
 302              	.L21:
 303 002a 00BF     		.align	2
 304              	.L20:
 305 002c 00000000 		.word	.LC4
 306              		.cfi_endproc
 307              	.LFE35:
 309              		.section	.rodata
 310              		.align	2
 311              		.set	.LANCHOR0,. + 0
 312              	.LC0:
 313 0000 0002     		.short	512
 314 0002 01       		.byte	1
 315 0003 18       		.byte	24
 316              	.LC1:
 317 0004 0004     		.short	1024
 318 0006 01       		.byte	1
 319 0007 04       		.byte	4
 320              	.LC2:
 321 0008 00C20100 		.word	115200
 322 000c 0000     		.short	0
 323 000e 0000     		.short	0
 324 0010 0000     		.short	0
 325 0012 0C00     		.short	12
ARM GAS  C:\Users\86157\AppData\Local\Temp\ccsJjo7b.s 			page 8


 326 0014 0000     		.short	0
 327 0016 0000     		.space	2
 328              	.LC3:
 329 0018 25       		.byte	37
 330 0019 0F       		.byte	15
 331 001a 00       		.byte	0
 332 001b 01       		.byte	1
 333              		.text
 334              	.Letext0:
 335              		.file 2 "e:\\windows\\programs\\arm-gnu-toolchain-12.2.mpacbti-bet1-mingw-w64-i686-arm-none-eabi\\
 336              		.file 3 "e:\\windows\\programs\\arm-gnu-toolchain-12.2.mpacbti-bet1-mingw-w64-i686-arm-none-eabi\\
 337              		.file 4 "USER/stm32f10x.h"
 338              		.file 5 "STM32F10x_FWLib/inc/stm32f10x_gpio.h"
 339              		.file 6 "STM32F10x_FWLib/inc/stm32f10x_usart.h"
 340              		.file 7 "STM32F10x_FWLib/inc/misc.h"
 341              		.file 8 "e:\\windows\\programs\\arm-gnu-toolchain-12.2.mpacbti-bet1-mingw-w64-i686-arm-none-eabi\\
 342              		.file 9 "e:\\windows\\programs\\arm-gnu-toolchain-12.2.mpacbti-bet1-mingw-w64-i686-arm-none-eabi\\
 343              		.file 10 "e:\\windows\\programs\\arm-gnu-toolchain-12.2.mpacbti-bet1-mingw-w64-i686-arm-none-eabi\
 344              		.file 11 "e:\\windows\\programs\\arm-gnu-toolchain-12.2.mpacbti-bet1-mingw-w64-i686-arm-none-eabi\
 345              		.file 12 "e:\\windows\\programs\\arm-gnu-toolchain-12.2.mpacbti-bet1-mingw-w64-i686-arm-none-eabi\
 346              		.file 13 "SYSTEM/delay/delay.h"
 347              		.file 14 "STM32F10x_FWLib/inc/stm32f10x_rcc.h"
ARM GAS  C:\Users\86157\AppData\Local\Temp\ccsJjo7b.s 			page 9

